(dp1
S'all'
p2
I92
sS'chain'
p3
I138
sS'tombs'
p4
I248
sS'ouch'
p5
I249
sS'yellow'
p6
I250
sS'leads'
p7
I251
sS'debris'
p8
I139
sS'hanging'
p9
I69
sS'go'
p10
I93
sS'glimpse'
p11
I252
sS'patches'
p12
I140
sS'passage'
p13
I94
sS'to'
p14
I4
sS'halfways'
p15
I254
sS'under'
p16
I75
sS'woman'
p17
I141
sS'far'
p18
I33
sS'loom'
p19
I486
sS'fall'
p20
I70
sS'condition'
p21
I341
sS'arched'
p22
I306
sS'prize'
p23
I259
sS'exits'
p24
I22
sS'wooden'
p25
I260
sS'turns'
p26
I142
sS'large'
p27
I143
sS'these'
p28
I261
sS'spaces'
p29
I424
sS'small'
p30
I95
sS'upper'
p31
I262
sS'smaller'
p32
I263
sS'ornate'
p33
I264
sS'sign'
p34
I265
sS'inland'
p35
I266
sS'likely'
p36
I267
sS'concludes'
p37
I268
sS'click'
p38
I269
sS'depression'
p39
I270
sS'blue'
p40
I144
sS'what'
p41
I71
sS'fingers'
p42
I121
sS'cell'
p43
I145
sS'suspect'
p44
I272
sS'above'
p45
I96
sS'falling'
p46
I273
sS'crashing'
p47
I274
sS'bird'
p48
I275
sS'thin'
p49
I276
sS'hero'
p50
I146
sS'guardian'
p51
I277
sS'splinter'
p52
I147
sS'here'
p53
I24
sS'water'
p54
I58
sS'explore'
p55
I278
sS'others'
p56
I279
sS'path'
p57
I280
sS'along'
p58
I72
sS'appears'
p59
I281
sS'dry'
p60
I282
sS'great'
p61
I148
sS'stormy'
p62
I428
sS'leaving'
p63
I283
sS'suggests'
p64
I284
sS'pick'
p65
I285
sS'climb'
p66
I286
sS'narrow'
p67
I150
sS'looted'
p68
I287
sS'magically'
p69
I288
sS'extra'
p70
I289
sS'suddenly'
p71
I151
sS'manage'
p72
I290
sS'patience'
p73
I291
sS'remnant'
p74
I292
sS'stern'
p75
I293
sS'standing'
p76
I59
sS'from'
p77
I13
sS'remains'
p78
I294
sS'faint'
p79
I295
sS'few'
p80
I296
sS'going'
p81
I431
sS'more'
p82
I298
sS'sort'
p83
I73
sS'flat'
p84
I299
sS'entrance'
p85
I153
sS'door'
p86
I154
sS'obelisk'
p87
I74
sS'altar'
p88
I97
sS'stable'
p89
I255
sS'about'
p90
I300
sS'hurt'
p91
I301
sS'surface'
p92
I214
sS'southwards'
p93
I303
sS'particular'
p94
I304
sS'hole'
p95
I155
sS'hold'
p96
I98
sS'blocking'
p97
I305
sS'must'
p98
I99
sS'room'
p99
I258
sS'this'
p100
I23
sS'past'
p101
I307
sS'roof'
p102
I156
sS'splinters'
p103
I308
sS'can'
p104
I60
sS'root'
p105
I42
sS'coffin'
p106
I100
sS'near'
p107
I212
sS'high'
p108
I101
sS'pushed'
p109
I309
sS'salty'
p110
I310
sS'something'
p111
I157
sS'sense'
p112
I311
sS'firmly'
p113
I312
sS'huge'
p114
I313
sS'end'
p115
I158
sS'goal'
p116
I314
sS'rather'
p117
I315
sS'holds'
p118
I316
sS'very'
p119
I102
sS'low'
p120
I134
sS'northwards'
p121
I317
sS'gaping'
p122
I318
sS'intelligent'
p123
I319
sS'circular'
p124
I320
sS'buildings'
p125
I103
sS'structure'
p126
I324
sS'earlier'
p127
I322
sS'southern'
p128
I323
sS'waves'
p129
I325
sS'heroes'
p130
I326
sS'plank'
p131
I159
sS'a'
I3
sS'natural'
p132
I160
sS'outline'
p133
I327
sS'light'
p134
I43
sS'fortifications'
p135
I435
sS'trembling'
p136
I329
sS'thorny'
p137
I330
sS'so'
p138
I331
sS'lined'
p139
I161
sS'order'
p140
I332
sS'wind'
p141
I162
sS'adorned'
p142
I163
sS'rusted'
p143
I253
sS'saturated'
p144
I334
sS'shield'
p145
I335
sS'over'
p146
I44
sS'move'
p147
I336
sS'through'
p148
I104
sS'looks'
p149
I164
sS'pitch'
p150
I165
sS'still'
p151
I166
sS'its'
p152
I45
sS'roots'
p153
I337
sS'blocked'
p154
I338
sS'outer'
p155
I339
sS'deeds'
p156
I340
sS'westwards'
p157
I167
sS'better'
p158
I105
sS'vast'
p159
I257
sS'covered'
p160
I46
sS'hidden'
p161
I342
sS'main'
p162
I168
sS'might'
p163
I169
sS'then'
p164
I152
sS'good'
p165
I344
sS'reveal'
p166
I345
sS'walls'
p167
I106
sS'markings'
p168
I346
sS'they'
p169
I76
sS'hands'
p170
I130
sS'front'
p171
I223
sS'now'
p172
I107
sS'hall'
p173
I347
sS'gloom'
p174
I226
sS'crudely'
p175
I348
sS'each'
p176
I171
sS'crossing'
p177
I349
sS'found'
p178
I350
sS'side'
p179
I109
sS'heavy'
p180
I172
sS'square'
p181
I351
sS'bump'
p182
I173
sS'series'
p183
I352
sS'hard'
p184
I353
sS'portcullis'
p185
I354
sS'furniture'
p186
I529
sS'out'
p187
I48
sS'try'
p188
I355
sS'littered'
p189
I356
sS'armor'
p190
I357
sS'miss'
p191
I358
sS'surrounded'
p192
I359
sS'stumble'
p193
I360
sS'looking'
p194
I174
sS'mess'
p195
I321
sS'dominated'
p196
I361
sS'shows'
p197
I362
sS'foundation'
p198
I175
sS'protruding'
p199
I176
sS'upon'
p200
I364
sS'horse'
p201
I365
sS'completely'
p202
I177
sS'crowned'
p203
I366
sS'heroic'
p204
I367
sS'yard'
p205
I368
sS'ruins'
p206
I178
sS'could'
p207
I369
sS'keep'
p208
I370
sS'thing'
p209
I110
sS'place'
p210
I371
sS'castle'
p211
I15
sS'fallen'
p212
I179
sS'think'
p213
I111
sS'first'
p214
I112
sS'already'
p215
I372
sS'stabs'
p216
I373
sS'feel'
p217
I374
sS'scene'
p218
I375
sS'rank'
p219
I376
sS'one'
p220
I49
sS'feet'
p221
I108
sS'ripples'
p222
I383
sS'directly'
p223
I180
sS'carry'
p224
I378
sS'reached'
p225
I379
sS'thick'
p226
I181
sS'open'
p227
I34
sS'horizontal'
p228
I182
sS'precariously'
p229
I183
sS'passes'
p230
I363
sS'little'
p231
I256
sS'ancient'
p232
I114
sS'murky'
p233
I381
sS'system'
p234
I382
sS'hangs'
p235
I113
sS'attack'
p236
I384
sS'fumble'
p237
I115
sS'decorations'
p238
I385
sS'gives'
p239
I188
sS'ceiling'
p240
I386
sS'collapse'
p241
I402
sS'that'
p242
I28
sS'brushes'
p243
I185
sS'part'
p244
I77
sS'western'
p245
I387
sS'blindly'
p246
I388
sS'flowers'
p247
I186
sS'stairs'
p248
I116
sS'than'
p249
I62
sS'steel'
p250
I389
sS'eastwards'
p251
I187
sS'kind'
p252
I390
sS'cracks'
p253
I391
sS'sections'
p254
I566
sS'grey'
p255
I393
sS'bed'
p256
I394
sS'iron'
p257
I395
sS'were'
p258
I396
sS'stale'
p259
I397
sS'and'
p260
I6
sS'bridge'
p261
I10
sS'suspicious'
p262
I398
sS'ages'
p263
I399
sS'cavern'
p264
I189
sS'have'
p265
I25
sS'need'
p266
I400
sS'curved'
p267
I401
sS'seem'
p268
I78
sS'any'
p269
I117
sS'relatively'
p270
I502
sS'paths'
p271
I403
sS'depict'
p272
I404
sS'realm'
p273
I405
sS'aside'
p274
I222
sS'lit'
p275
I407
sS'also'
p276
I190
sS'which'
p277
I408
sS'tentacles'
p278
I236
sS'divert'
p279
I409
sS'begin'
p280
I410
sS'towards'
p281
I118
sS'gatehoue'
p282
I411
sS'opposite'
p283
I412
sS'reach'
p284
I413
sS'mashed'
p285
I414
sS'most'
p286
I192
sS'connected'
p287
I415
sS'eaten'
p288
I416
sS'nothing'
p289
I119
sS'forever'
p290
I417
sS'don'
p291
I193
sS'sturdy'
p292
I418
sS'clear'
p293
I419
sS'later'
p294
I420
sS'cover'
p295
I421
sS'face'
p296
I120
sS'treasures'
p297
I422
sS'channels'
p298
I377
sS'queen'
p299
I423
sS'passages'
p300
I333
sS'perched'
p301
I425
sS'corner'
p302
I63
sS'fine'
p303
I426
sS'find'
p304
I194
sS'ground'
p305
I36
sS'touches'
p306
I427
sS'northern'
p307
I149
sS'ruin'
p308
I429
sS'outside'
p309
I430
sS'only'
p310
I195
sS'wood'
p311
I297
sS'black'
p312
I37
sS'makeshift'
p313
I500
sS'circle'
p314
I196
sS'columns'
p315
I432
sS'do'
p316
I122
sS'hit'
p317
I433
sS'goes'
p318
I434
sS'wide'
p319
I79
sS'trees'
p320
I197
sS'coast'
p321
I198
sS'feels'
p322
I328
sS'cannot'
p323
I436
sS'nearly'
p324
I437
sS'despite'
p325
I438
sS'gray'
p326
I199
sS'eventually'
p327
I494
sS'release'
p328
I439
sS'grab'
p329
I440
sS'where'
p330
I123
sS'view'
p331
I441
sS'reveals'
p332
I442
sS'frame'
p333
I443
sS'scenes'
p334
I444
sS'anchored'
p335
I445
sS'see'
p336
I38
sS'individual'
p337
I446
sS'bare'
p338
I447
sS'are'
p339
I11
sS'sea'
p340
I200
sS'close'
p341
I64
sS'dives'
p342
I448
sS'pebbles'
p343
I449
sS'dungeon'
p344
I450
sS'managing'
p345
I451
sS'away'
p346
I452
sS'ornament'
p347
I453
sS'overgrown'
p348
I80
sS'probably'
p349
I202
sS'before'
p350
I454
sS'aeons'
p351
I455
sS'warrior'
p352
I456
sS'notice'
p353
I457
sS'vertical'
p354
I203
sS'opening'
p355
I124
sS'apparition'
p356
I81
sS'archways'
p357
I458
sS'courtyard'
p358
I29
sS'antechamber'
p359
I204
sS'entrances'
p360
I459
sS'come'
p361
I125
sS'abruptly'
p362
I460
sS'influential'
p363
I461
sS'many'
p364
I462
sS'archway'
p365
I205
sS'against'
p366
I82
sS's'
I39
sS'whole'
p367
I463
sS'comes'
p368
I464
sS'stretches'
p369
I465
sS'cornered'
p370
I466
sS'point'
p371
I83
sS'wall'
p372
I14
sS'sky'
p373
I126
sS'ravages'
p374
I206
sS'caverns'
p375
I467
sS'adjoining'
p376
I468
sS'church'
p377
I469
sS'actually'
p378
I470
sS'sprays'
p379
I471
sS'stretch'
p380
I472
sS'west'
p381
I84
sS'damp'
p382
I207
sS'been'
p383
I85
sS'hitting'
p384
I473
sS'evenness'
p385
I474
sS'miraculously'
p386
I475
sS'pile'
p387
I476
sS'entered'
p388
I477
sS'chiseled'
p389
I208
sS'empty'
p390
I478
sS'choose'
p391
I479
sS'resting'
p392
I480
sS'direction'
p393
I481
sS'senses'
p394
I482
sS'families'
p395
I483
sS'eastern'
p396
I209
sS'moved'
p397
I484
sS'foggy'
p398
I210
sS'those'
p399
I485
sS'has'
p400
I184
sS'disconnected'
p401
I487
sS'reddish'
p402
I488
sS'solid'
p403
I127
sS'straight'
p404
I489
sS'air'
p405
I65
sS'will'
p406
I211
sS'cast'
p407
I490
sS'while'
p408
I271
sS'moors'
p409
I584
sS'carved'
p410
I492
sS'trinkets'
p411
I524
sS'eastward'
p412
I343
sS'almost'
p413
I213
sS'is'
p414
I5
sS'it'
p415
I7
sS'defeated'
p416
I302
sS'middle'
p417
I215
sS'itself'
p418
I496
sS'in'
p419
I9
sS'sits'
p420
I216
sS'if'
p421
I217
sS'creaks'
p422
I497
sS'anymore'
p423
I498
sS'things'
p424
I499
sS'make'
p425
I66
sS'clearly'
p426
I495
sS'parts'
p427
I501
sS'underground'
p428
I128
sS'arrives'
p429
I503
sS'lie'
p430
I504
sS'hang'
p431
I218
sS'rain'
p432
I219
sS'statue'
p433
I220
sS'dust'
p434
I505
sS'totally'
p435
I506
sS'off'
p436
I507
sS'center'
p437
I129
sS'disappears'
p438
I508
sS'weapon'
p439
I86
sS'no'
p440
I588
sS'well'
p441
I509
sS'drip'
p442
I510
sS'ragged'
p443
I511
sS'shore'
p444
I512
sS'sheer'
p445
I380
sS'edge'
p446
I513
sS'flint'
p447
I514
sS'the'
p448
I0
sS'left'
p449
I515
sS'legendary'
p450
I516
sS'just'
p451
I517
sS'half'
p452
I170
sS'isolated'
p453
I406
sS'not'
p454
I47
sS'rumbling'
p455
I518
sS'flagstones'
p456
I564
sS'rooms'
p457
I519
sS'world'
p458
I227
sS'halfway'
p459
I520
sS'hint'
p460
I521
sS'seems'
p461
I50
sS'bench'
p462
I522
sS'pillars'
p463
I523
sS'extends'
p464
I225
sS'ghostly'
p465
I87
sS'east'
p466
I88
sS'real'
p467
I493
sS'around'
p468
I51
sS'dark'
p469
I30
sS'gnarled'
p470
I525
sS'quest'
p471
I526
sS'ledge'
p472
I137
sS'waraxe'
p473
I527
sS'using'
p474
I224
sS'apart'
p475
I528
sS'gatehouse'
p476
I40
sS'like'
p477
I41
sS'criss'
p478
I530
sS'porous'
p479
I531
sS'resin'
p480
I532
sS'chamber'
p481
I228
sS'continue'
p482
I229
sS'unstable'
p483
I533
sS't'
I132
sS'flickering'
p484
I534
sS'works'
p485
I535
sS'grue'
p486
I536
sS'right'
p487
I231
sS'old'
p488
I17
sS'exposed'
p489
I537
sS'some'
p490
I52
sS'back'
p491
I131
sS'daylight'
p492
I232
sS'sight'
p493
I538
sS'tutorial'
p494
I539
sS'happens'
p495
I540
sS'for'
p496
I53
sS'bottom'
p497
I541
sS'lean'
p498
I542
sS'simmers'
p499
I543
sS'does'
p500
I544
sS'exit'
p501
I545
sS'slash'
p502
I546
sS'sifts'
p503
I547
sS'temple'
p504
I26
sS'either'
p505
I230
sS'be'
p506
I27
sS'power'
p507
I548
sS'burn'
p508
I549
sS'broken'
p509
I133
sS'shakily'
p510
I550
sS'by'
p511
I18
sS'sways'
p512
I551
sS'on'
p513
I12
sS'stone'
p514
I19
sS'anything'
p515
I233
sS'rumble'
p516
I552
sS'of'
p517
I2
sS'slayer'
p518
I553
sS'distinct'
p519
I554
sS'stand'
p520
I234
sS'tomb'
p521
I20
sS'or'
p522
I31
sS'formerly'
p523
I555
sS'previously'
p524
I556
sS'into'
p525
I67
sS'down'
p526
I21
sS'lies'
p527
I235
sS'engulf'
p528
I557
sS'collumns'
p529
I558
sS'sprawled'
p530
I559
sS'your'
p531
I16
sS'smells'
p532
I560
sS'behind'
p533
I561
sS'area'
p534
I90
sS'there'
p535
I54
sS'sides'
p536
I595
sS'grasping'
p537
I563
sS'inner'
p538
I61
sS'way'
p539
I35
sS'forward'
p540
I565
sS'slopes'
p541
I237
sS'was'
p542
I392
sS'opens'
p543
I238
sS'lowest'
p544
I239
sS'ago'
p545
I567
sS'elsewhere'
p546
I568
sS'offering'
p547
I569
sS'enough'
p548
I570
sS'collapsed'
p549
I135
sS'decisive'
p550
I571
sS'but'
p551
I55
sS'somehow'
p552
I572
sS'glamour'
p553
I573
sS'hear'
p554
I574
sS'survived'
p555
I575
sS'line'
p556
I576
sS'with'
p557
I8
sS'evennia'
p558
I577
sS'bucket'
p559
I240
sS'up'
p560
I56
sS'ruined'
p561
I57
sS'below'
p562
I241
sS'un'
p563
I578
sS'grass'
p564
I242
sS'weedy'
p565
I579
sS'sarcophagus'
p566
I243
sS'ordered'
p567
I580
sS'snatched'
p568
I581
sS'rubble'
p569
I244
sS'life'
p570
I582
sS'covers'
p571
I583
sS'an'
p572
I136
sS'as'
p573
I245
sS'lichen'
p574
I491
sS'at'
p575
I68
sS'moves'
p576
I585
sS'mold'
p577
I586
sS'abyss'
p578
I587
sS'floor'
p579
I221
sS'whereas'
p580
I589
sS'green'
p581
I191
sS'other'
p582
I590
sS'holding'
p583
I201
sS'test'
p584
I591
sS'you'
p585
I1
sS'withstood'
p586
I592
sS'symbol'
p587
I593
sS'felt'
p588
I594
sS'heroine'
p589
I562
sS'pool'
p590
I246
sS'cliff'
p591
I32
sS'building'
p592
I247
sS'lead'
p593
I596
sS'overlooking'
p594
I597
sS'valuables'
p595
I598
sS'vines'
p596
I599
sS'together'
p597
I89
sS'time'
p598
I91
sS'push'
p599
I600
sS'having'
p600
I601
sS'once'
p601
I602
s.