(dp1
S'sleep'
p2
I1918
sS'hanging'
p3
I1338
sS'hate'
p4
I1714
sS'forget'
p5
I670
sS'increase'
p6
I1878
sS'deathspotter'
p7
I2223
sS'under'
p8
I249
sS'sorry'
p9
I222
sS'pride'
p10
I1382
sS'worth'
p11
I1637
sS'swivel'
p12
I1076
sS'rescue'
p13
I308
sS'blanket'
p14
I1259
sS'every'
p15
I1104
sS'messy'
p16
I1822
sS'bringing'
p17
I2024
sS'tickets'
p18
I2051
sS'wooden'
p19
I1288
sS'cause'
p20
I2061
sS'companies'
p21
I758
sS'delightfully'
p22
I1603
sS'heading'
p23
I1708
sS'clothes'
p24
I324
sS'enjoy'
p25
I1999
sS'awake'
p26
I2088
sS'surrounding'
p27
I238
sS'rusty'
p28
I1244
sS'street'
p29
I244
sS'filletin'
p30
I2045
sS'floordrobe'
p31
I2250
sS'even'
p32
I35
sS'hide'
p33
I1308
sS'pace'
p34
I1879
sS'weren'
p35
I1845
sS'poison'
p36
I708
sS'lights'
p37
I554
sS'minty'
p38
I1109
sS'above'
p39
I945
sS'blur'
p40
I1179
sS'new'
p41
I1647
sS'net'
p42
I1482
sS'ever'
p43
I546
sS'crouch'
p44
I932
sS'screams'
p45
I280
sS'never'
p46
I718
sS'here'
p47
I1271
sS'met'
p48
I422
sS'hers'
p49
I423
sS'path'
p50
I1321
sS'stares'
p51
I13
sS'cardboard'
p52
I187
sS'jams'
p53
I1448
sS'rests'
p54
I2016
sS'items'
p55
I1489
sS'leaves'
p56
I1016
sS'changed'
p57
I1595
sS'completely'
p58
I2084
sS'ignoring'
p59
I1300
sS'buckles'
p60
I1702
sS'smoke'
p61
I710
sS'punishment'
p62
I586
sS'golden'
p63
I1717
sS'prints'
p64
I988
sS'campaign'
p65
I1746
sS'slices'
p66
I771
sS'visibly'
p67
I1141
sS'refuse'
p68
I1784
sS'sarah'
p69
I2
sS'plow'
p70
I1406
sS'charge'
p71
I1697
sS'would'
p72
I1522
sS'occupying'
p73
I1710
sS'music'
p74
I279
sS'survive'
p75
I2072
sS'until'
p76
I110
sS'breathe'
p77
I1633
sS'dumped'
p78
I2067
sS'lungs'
p79
I886
sS'relax'
p80
I1305
sS'haha'
p81
I472
sS'hurt'
p82
I976
sS'phone'
p83
I134
sS'warm'
p84
I1060
sS'hold'
p85
I912
sS'blocking'
p86
I1320
sS'must'
p87
I608
sS'me'
p88
I61
sS'locked'
p89
I319
sS'room'
p90
I1017
sS'shame'
p91
I1769
sS'work'
p92
I143
sS'worn'
p93
I1928
sS'cuddly'
p94
I1604
sS'ere'
p95
I1039
sS'acught'
p96
I1231
sS'era'
p97
I846
sS'henry'
p98
I23
sS'my'
p99
I0
sS'joyous'
p100
I573
sS'laughs'
p101
I1770
sS'honey'
p102
I776
sS'want'
p103
I761
sS'punctuality'
p104
I1846
sS'times'
p105
I1245
sS'risk'
p106
I1319
sS'end'
p107
I202
sS'recovery'
p108
I856
sS'turn'
p109
I278
sS'travel'
p110
I1772
sS'song'
p111
I1266
sS'damage'
p112
I978
sS'comedians'
p113
I1956
sS'machine'
p114
I330
sS'how'
p115
I421
sS'hot'
p116
I1062
sS'hop'
p117
I1553
sS'edgy'
p118
I1950
sS'interview'
p119
I1281
sS'beach'
p120
I403
sS'aboard'
p121
I1547
sS'lal'
p122
I715
sS'after'
p123
I537
sS'delicacy'
p124
I592
sS'modest'
p125
I1180
sS'curiosity'
p126
I787
sS'lesbian'
p127
I745
sS'shirt'
p128
I2128
sS'snarling'
p129
I915
sS'attempt'
p130
I203
sS'effective'
p131
I887
sS'wins'
p132
I698
sS'appreciate'
p133
I1393
sS'scoffs'
p134
I1020
sS'green'
p135
I1605
sS'goodbye'
p136
I2048
sS'enter'
p137
I523
sS'worst'
p138
I1400
sS'order'
p139
I835
sS'wind'
p140
I1804
sS'office'
p141
I657
sS'over'
p142
I177
sS'satisfied'
p143
I1674
sS'teen'
p144
I1927
sS'awful'
p145
I1679
sS'talkative'
p146
I1243
sS'before'
p147
I158
sS'fit'
p148
I1907
sS'somewhere'
p149
I1658
sS'highlights'
p150
I2011
sS'fix'
p151
I1785
sS'better'
p152
I518
sS'understated'
p153
I1046
sS'differently'
p154
I2168
sS'fade'
p155
I1177
sS'carve'
p156
I1871
sS'hidden'
p157
I2126
sS'then'
p158
I388
sS'them'
p159
I260
sS'combination'
p160
I1518
sS'safe'
p161
I1756
sS'break'
p162
I1430
sS'band'
p163
I1268
sS'bang'
p164
I881
sS'they'
p165
I314
sS'yourself'
p166
I105
sS'bread'
p167
I779
sS'meat'
p168
I1612
sS'swaying'
p169
I575
sS'lookth'
p170
I936
sS'each'
p171
I267
sS'went'
p172
I1164
sS'meal'
p173
I1120
sS'mean'
p174
I1926
sS'inserts'
p175
I336
sS'garment'
p176
I2253
sS'spider'
p177
I746
sS'used'
p178
I1475
sS'logo'
p179
I2157
sS'sounds'
p180
I2089
sS'driving'
p181
I659
sS'forty'
p182
I1207
sS'content'
p183
I632
sS're'
p184
I112
sS'medicine'
p185
I857
sS'surprise'
p186
I1586
sS'sliding'
p187
I1516
sS'cutest'
p188
I863
sS'whiff'
p189
I2251
sS'waddle'
p190
I1275
sS'admits'
p191
I1768
sS'struggle'
p192
I76
sS'ate'
p193
I1824
sS'created'
p194
I2135
sS'starts'
p195
I275
sS'flurry'
p196
I1396
sS'isn'
p197
I855
sS'tempting'
p198
I605
sS'onto'
p199
I214
sS'bite'
p200
I1876
sS'already'
p201
I511
sS'playfully'
p202
I928
sS'twitches'
p203
I1263
sS'oopth'
p204
I940
sS'spinning'
p205
I1435
sS'disappearing'
p206
I1454
sS'delicious'
p207
I591
sS'wasn'
p208
I1397
sS'thick'
p209
I1413
sS'lister'
p210
I989
sS'likely'
p211
I2073
sS'top'
p212
I885
sS'girls'
p213
I533
sS'elevator'
p214
I1390
sS'blurts'
p215
I1691
sS'2'
I696
sS'too'
p216
I30
sS'wildly'
p217
I277
sS'john'
p218
I128
sS'listen'
p219
I1884
sS'ceiling'
p220
I560
sS'collapse'
p221
I91
sS'canned'
p222
I2193
sS'happily'
p223
I1713
sS'bouncing'
p224
I1491
sS'lunges'
p225
I304
sS'ludicrously'
p226
I1054
sS'took'
p227
I1829
sS'kept'
p228
I1826
sS'brushed'
p229
I1814
sS'begins'
p230
I283
sS'distance'
p231
I660
sS'guild'
p232
I1529
sS'frankly'
p233
I831
sS'barstools'
p234
I1597
sS'second'
p235
I1272
sS'wielder'
p236
I1902
sS'shower'
p237
I1108
sS'iron'
p238
I97
sS'tackled'
p239
I512
sS'feeling'
p240
I1326
sS'powers'
p241
I2081
sS'sees'
p242
I2127
sS'navigate'
p243
I647
sS'modern'
p244
I1955
sS'ginger'
p245
I1273
sS'talking'
p246
I1250
sS'seen'
p247
I1094
sS'seem'
p248
I509
sS'bonny'
p249
I1933
sS'tells'
p250
I1236
sS'contents'
p251
I1483
sS'ponder'
p252
I1877
sS'strength'
p253
I83
sS'responsible'
p254
I622
sS'snow'
p255
I491
sS'sound'
p256
I525
sS'recommended'
p257
I1625
sS'causing'
p258
I1843
sS'doors'
p259
I1517
sS'blue'
p260
I366
sS'though'
p261
I888
sS'distracts'
p262
I1492
sS'boardgame'
p263
I1461
sS'regular'
p264
I2165
sS'mouth'
p265
I303
sS'coin'
p266
I337
sS'don'
p267
I71
sS'snooping'
p268
I1232
sS'mushy'
p269
I1614
sS'alarm'
p270
I2097
sS'camp'
p271
I593
sS'm'
I147
sS'dog'
p272
I837
sS'points'
p273
I6
sS'scream'
p274
I1539
sS'urgency'
p275
I1519
sS'photograghs'
p276
I1190
sS'saying'
p277
I1249
sS'hunger'
p278
I677
sS'random'
p279
I611
sS'ending'
p280
I1246
sS'pops'
p281
I1701
sS'radio'
p282
I140
sS'earth'
p283
I191
sS'consciousness'
p284
I1136
sS'menu'
p285
I2010
sS'explain'
p286
I120
sS'sugar'
p287
I2191
sS'excitedly'
p288
I810
sS'folks'
p289
I736
sS'mischievous'
p290
I1936
sS'scrubbing'
p291
I1555
sS'wearing'
p292
I1208
sS'do'
p293
I297
sS'mixture'
p294
I1077
sS'professionals'
p295
I2212
sS'piosoning'
p296
I2006
sS'stow'
p297
I922
sS'stop'
p298
I884
sS'glamorous'
p299
I1729
sS'coast'
p300
I414
sS'pocket'
p301
I1160
sS'shutting'
p302
I2085
sS'despite'
p303
I419
sS'knocks'
p304
I603
sS'relish'
p305
I577
sS'runs'
p306
I1373
sS'bar'
p307
I524
sS'spilling'
p308
I291
sS'guns'
p309
I919
sS'bag'
p310
I1511
sS'bad'
p311
I226
sS'isolation'
p312
I1985
sS'wannabe'
p313
I531
sS'disaster'
p314
I676
sS'nut'
p315
I777
sS'unsurprisingly'
p316
I1797
sS'proclaims'
p317
I1343
sS'decided'
p318
I916
sS'fail'
p319
I1628
sS'hero'
p320
I1695
sS'best'
p321
I1407
sS'said'
p322
I563
sS'lots'
p323
I2169
sS'away'
p324
I320
sS'rings'
p325
I939
sS'shaved'
p326
I770
sS'mug'
p327
I169
sS'score'
p328
I899
sS'finger'
p329
I339
sS'pets'
p330
I1640
sS'hopefully'
p331
I1497
sS'approach'
p332
I329
sS'we'
p333
I24
sS'wears'
p334
I541
sS'nature'
p335
I1987
sS'lapping'
p336
I973
sS'however'
p337
I1738
sS'boss'
p338
I1221
sS'drowsy'
p339
I2076
sS'kitchen'
p340
I1181
sS'cop'
p341
I737
sS'against'
p342
I453
sS'games'
p343
I678
sS'faces'
p344
I242
sS'disappears'
p345
I1692
sS'motioning'
p346
I1696
sS'widen'
p347
I1654
sS'munches'
p348
I1431
sS'height'
p349
I1976
sS'blonde'
p350
I269
sS'trust'
p351
I416
sS'100'
p352
I2141
sS'panel'
p353
I1817
sS'headlights'
p354
I1410
sS'aback'
p355
I1034
sS'asks'
p356
I485
sS'three'
p357
I411
sS'been'
p358
I445
sS'quickly'
p359
I173
sS'confident'
p360
I109
sS'trigger'
p361
I502
sS'interest'
p362
I1608
sS'glace'
p363
I954
sS'idol'
p364
I581
sS'life'
p365
I619
sS'spit'
p366
I1078
sS'bladder'
p367
I1841
sS'teenagers'
p368
I2213
sS'lift'
p369
I245
sS'catch'
p370
I1313
sS'spin'
p371
I1598
sS'play'
p372
I1294
sS'east'
p373
I1195
sS'reshaped'
p374
I2132
sS'pungent'
p375
I1812
sS'air'
p376
I1157
sS'aim'
p377
I500
sS'near'
p378
I1834
sS'ain'
p379
I1006
sS'dashboard'
p380
I959
sS'stopping'
p381
I312
sS'aid'
p382
I1371
sS'aural'
p383
I539
sS'voice'
p384
I1037
sS'destory'
p385
I1774
sS'is'
p386
I21
sS'spectacle'
p387
I1541
sS'it'
p388
I15
sS'player'
p389
I697
sS'cant'
p390
I600
sS'im'
p391
I1242
sS'exterior'
p392
I570
sS'in'
p393
I106
sS'faked'
p394
I1972
sS'march'
p395
I1575
sS'controversy'
p396
I1953
sS'ie'
p397
I762
sS'id'
p398
I1253
sS'trusted'
p399
I99
sS'if'
p400
I149
sS'growl'
p401
I860
sS'bottles'
p402
I1465
sS'shimmering'
p403
I970
sS'miniature'
p404
I851
sS'things'
p405
I624
sS'make'
p406
I700
sS'beside'
p407
I1339
sS'unfortunate'
p408
I960
sS'several'
p409
I513
sS'survival'
p410
I1255
sS'fairly'
p411
I2178
sS'hang'
p412
I559
sS'hand'
p413
I2017
sS'dark'
p414
I2177
sS'tune'
p415
I1916
sS'kid'
p416
I418
sS'shortly'
p417
I344
sS'suffering'
p418
I2207
sS'ocean'
p419
I971
sS'greatest'
p420
I1352
sS'endif'
p421
I383
sS'the'
p422
I19
sS'left'
p423
I909
sS'just'
p424
I232
sS'sentence'
p425
I298
sS'photo'
p426
I9
sS'sporting'
p427
I370
sS'sleepy'
p428
I1925
sS'gravity'
p429
I1394
sS'airbag'
p430
I1284
sS'yes'
p431
I1344
sS'scattering'
p432
I215
sS'yet'
p433
I282
sS'adding'
p434
I633
sS'ham'
p435
I906
sS'furry'
p436
I1276
sS'ease'
p437
I644
sS'had'
p438
I25
sS'belongs'
p439
I406
sS'has'
p440
I338
sS'trimming'
p441
I43
sS'opt'
p442
I1577
sS'boxed'
p443
I2192
sS'breaks'
p444
I1355
sS'possible'
p445
I65
sS'craaaaaaaaaaaaaap'
p446
I2094
sS'angrily'
p447
I1678
sS'possibly'
p448
I544
sS'fusion'
p449
I1521
sS'performance'
p450
I1923
sS'wueens'
p451
I747
sS'apart'
p452
I2034
sS'shoulder'
p453
I946
sS'remind'
p454
I1794
sS'steps'
p455
I2077
sS'night'
p456
I444
sS'overslept'
p457
I2095
sS'right'
p458
I165
sS'old'
p459
I123
sS'crowd'
p460
I482
sS'people'
p461
I237
sS'sends'
p462
I862
sS'proudly'
p463
I1534
sS'elderly'
p464
I1903
sS'insistence'
p465
I1370
sS'billboard'
p466
I788
sS'guess'
p467
I975
sS'ignore'
p468
I1296
sS'for'
p469
I16
sS'bottom'
p470
I1030
sS'centre'
p471
I1192
sS'everything'
p472
I1789
sS'icy'
p473
I1436
sS'asking'
p474
I1247
sS'adorable'
p475
I824
sS'christmas'
p476
I553
sS'peek'
p477
I248
sS'shakes'
p478
I1503
sS'marketing'
p479
I1745
sS'burn'
p480
I294
sS'speak'
p481
I1996
sS'translated'
p482
I1995
sS'swings'
p483
I2012
sS'mutters'
p484
I811
sS'losing'
p485
I705
sS'insanity'
p486
I1727
sS'shaken'
p487
I357
sS'takes'
p488
I686
sS'conceal'
p489
I1203
sS'choke'
p490
I284
sS'misleading'
p491
I2145
sS'azure'
p492
I365
sS'efforts'
p493
I1307
sS'slightly'
p494
I386
sS'raised'
p495
I1312
sS'lied'
p496
I1982
sS'pays'
p497
I1676
sS'chutney'
p498
I840
sS'down'
p499
I138
sS'lies'
p500
I1921
sS'raises'
p501
I2049
sS'nameless'
p502
I2234
sS'stumble'
p503
I455
sS'strangely'
p504
I506
sS'yawn'
p505
I2091
sS'deal'
p506
I1001
sS'initial'
p507
I538
sS'fight'
p508
I1460
sS'stuck'
p509
I965
sS'way'
p510
I450
sS'call'
p511
I415
sS'was'
p512
I56
sS'happy'
p513
I1673
sS'questionable'
p514
I796
sS'head'
p515
I980
sS'amateur'
p516
I1719
sS'form'
p517
I584
sS'attempted'
p518
I258
sS'becoming'
p519
I2075
sS'garments'
p520
I1860
sS'heat'
p521
I1256
sS'hear'
p522
I879
sS'dead'
p523
I1919
sS'shrills'
p524
I1043
sS'congratulations'
p525
I1854
sS'flavour'
p526
I722
sS'inside'
p527
I92
sS'bounds'
p528
I867
sS'tell'
p529
I974
sS'palm'
p530
I1569
sS'passenger'
p531
I674
sS'trio'
p532
I526
sS'phil'
p533
I1941
sS'nicking'
p534
I1712
sS'sticks'
p535
I2138
sS'escape'
p536
I1760
sS'sticky'
p537
I561
sS'thunk'
p538
I1899
sS'sometime'
p539
I1137
sS'qix'
p540
I742
sS'prayer'
p541
I521
sS'floating'
p542
I1613
sS'check'
p543
I1088
sS'marinated'
p544
I2065
sS'crutches'
p545
I1090
sS'holy'
p546
I1602
sS'dotted'
p547
I412
sS'floor'
p548
I175
sS'commercials'
p549
I1889
sS'when'
p550
I41
sS'ne'
p551
I1223
sS'topped'
p552
I838
sS'faux'
p553
I1214
sS'holding'
p554
I2022
sS'papers'
p555
I216
sS'discount'
p556
I2008
sS'picture'
p557
I2160
sS'dies'
p558
I1240
sS'felt'
p559
I1929
sS'trouble'
p560
I602
sS'nods'
p561
I1096
sS'shatters'
p562
I850
sS'died'
p563
I137
sS'younger'
p564
I2021
sS'bullet'
p565
I185
sS'glass'
p566
I1600
sS'sacks'
p567
I2195
sS'normally'
p568
I1704
sS'jacket'
p569
I923
sS'reception'
p570
I1588
sS'time'
p571
I117
sS'push'
p572
I1283
sS'serious'
p573
I2028
sS'songs'
p574
I1657
sS'stained'
p575
I2046
sS'concept'
p576
I1472
sS'chain'
p577
I1990
sS'dance'
p578
I1914
sS'leads'
p579
I1194
sS'mild'
p580
I1726
sS'chair'
p581
I274
sS'involved'
p582
I1734
sS'milk'
p583
I1485
sS'row'
p584
I805
sS'certainly'
p585
I2256
sS'essentials'
p586
I1487
sS'father'
p587
I407
sS'finally'
p588
I396
sS'terror'
p589
I241
sS'circumstances'
p590
I1525
sS'hannah'
p591
I1372
sS'seemingly'
p592
I2220
sS'emergencies'
p593
I829
sS'congregation'
p594
I1872
sS'advised'
p595
I1113
sS'xxxxxxxxxx'
p596
I1199
sS'minute'
p597
I1512
sS'cool'
p598
I1295
sS'impressive'
p599
I1847
sS'level'
p600
I739
sS'did'
p601
I296
sS'die'
p602
I709
sS'gun'
p603
I183
sS'leave'
p604
I1091
sS'p'
I1010
sS'settle'
p605
I1579
sS'grimace'
p606
I1705
sS'quick'
p607
I1580
sS'guy'
p608
I1163
sS'round'
p609
I1589
sS'unexpected'
p610
I1145
sS'says'
p611
I4
sS'villa'
p612
I401
sS'sigh'
p613
I651
sS'sign'
p614
I616
sS'eating'
p615
I1451
sS'fear'
p616
I1690
sS'irritated'
p617
I1142
sS'adds'
p618
I1935
sS'appear'
p619
I564
sS'movies'
p620
I1730
sS'assistance'
p621
I1127
sS'hazel'
p622
I2018
sS'uniform'
p623
I373
sS'current'
p624
I1169
sS'goes'
p625
I68
sS'shared'
p626
I719
sS'falling'
p627
I865
sS'scampering'
p628
I924
sS'pose'
p629
I1763
sS'grandparents'
p630
I2033
sS'involuntarily'
p631
I1264
sS'water'
p632
I1075
sS'pause'
p633
I1836
sS'address'
p634
I1651
sS'mugs'
p635
I1509
sS'along'
p636
I413
sS'appears'
p637
I377
sS'change'
p638
I510
sS'wait'
p639
I376
sS'box'
p640
I818
sS'sending'
p641
I212
sS'merriment'
p642
I578
sS'thirty'
p643
I2104
sS'impatiently'
p644
I1548
sS'brilliant'
p645
I641
sS'wherever'
p646
I1059
sS'commonly'
p647
I1329
sS'bon'
p648
I197
sS'usually'
p649
I1732
sS'weird'
p650
I430
sS'emerge'
p651
I658
sS'tasks'
p652
I1172
sS'love'
p653
I557
sS'humour'
p654
I1963
sS'bloody'
p655
I152
sS'verge'
p656
I2083
sS'firearm'
p657
I917
sS'wealth'
p658
I420
sS'working'
p659
I1379
sS'prove'
p660
I2027
sS'give'
p661
I933
sS'visit'
p662
I1478
sS'tears'
p663
I2031
sS'tightly'
p664
I1910
sS'live'
p665
I1008
sS'going'
p666
I599
sS'believing'
p667
I1966
sS'australian'
p668
I1623
sS'swagger'
p669
I1723
sS'today'
p670
I631
sS'hesitates'
p671
I2228
sS'smudged'
p672
I256
sS'consoled'
p673
I2180
sS'flying'
p674
I2110
sS'apparent'
p675
I1908
sS'ooh'
p676
I480
sS'drown'
p677
I2252
sS'snarkily'
p678
I1235
sS'slogan'
p679
I1357
sS'avoiding'
p680
I1154
sS'soup'
p681
I1616
sS'gathers'
p682
I231
sS'can'
p683
I625
sS'believed'
p684
I1265
sS'making'
p685
I454
sS'arrive'
p686
I397
sS'pickle'
p687
I966
sS'heart'
p688
I194
sS'crazy'
p689
I431
sS'stream'
p690
I300
sS'pauses'
p691
I45
sS'spectacularly'
p692
I1564
sS'fuck'
p693
I1986
sS'sample'
p694
I2139
sS'dropped'
p695
I897
sS'cornflakes'
p696
I778
sS'inheritance'
p697
I2032
sS'watching'
p698
I1549
sS'poking'
p699
I1423
sS'1'
I692
sS'emotionless'
p700
I2152
sS'swore'
p701
I1862
sS'optimal'
p702
I1293
sS'speaks'
p703
I2235
sS'explores'
p704
I1962
sS'information'
p705
I1477
sS'may'
p706
I318
sS'dive'
p707
I174
sS'crashed'
p708
I155
sS'uppercase'
p709
I2231
sS'designed'
p710
I1470
sS'date'
p711
I1849
sS'such'
p712
I1398
sS'man'
p713
I124
sS'surfing'
p714
I2163
sS'branches'
p715
I1375
sS'neck'
p716
I306
sS'maybe'
p717
I363
sS'switch'
p718
I2186
sS'mango'
p719
I839
sS'truck'
p720
I141
sS'basket'
p721
I1484
sS'tall'
p722
I1188
sS'pulled'
p723
I2005
sS'talk'
p724
I734
sS'drunken'
p725
I529
sS'neighbourhoods'
p726
I794
sS'displayed'
p727
I1191
sS'years'
p728
I394
sS'ended'
p729
I618
sS'cold'
p730
I153
sS'still'
p731
I356
sS'blocked'
p732
I1391
sS'group'
p733
I459
sS'thank'
p734
I1092
sS'roborally'
p735
I1463
sS'interesting'
p736
I437
sS'curls'
p737
I861
sS'inflicted'
p738
I585
sS'window'
p739
I675
sS'thump'
p740
I1467
sS'showered'
p741
I1807
sS'main'
p742
I663
sS'decades'
p743
I2020
sS'happened'
p744
I1791
sS'halt'
p745
I1544
sS'nod'
p746
I1874
sS'underneath'
p747
I947
sS'lunch'
p748
I1429
sS'adrenaline'
p749
I1698
sS'half'
p750
I798
sS'not'
p751
I66
sS'now'
p752
I620
sS'killed'
p753
I1635
sS'deady'
p754
I1118
sS'name'
p755
I127
sS'drop'
p756
I457
sS'foundth'
p757
I937
sS'bursts'
p758
I1765
sS'nodding'
p759
I1426
sS'realise'
p760
I466
sS'rock'
p761
I580
sS'veins'
p762
I1700
sS'entirely'
p763
I1523
sS'pizza'
p764
I2101
sS'em'
p765
I44
sS'fired'
p766
I1381
sS'hiccups'
p767
I1850
sS'yeah'
p768
I374
sS'fires'
p769
I184
sS'catching'
p770
I1706
sS'year'
p771
I1212
sS'hurries'
p772
I813
sS'happen'
p773
I1404
sS'worried'
p774
I2069
sS'er'
p775
I74
sS'illnesses'
p776
I1948
sS'space'
p777
I950
sS'hastily'
p778
I1058
sS'looking'
p779
I317
sS'seriously'
p780
I1356
sS'exploding'
p781
I2222
sS'shows'
p782
I842
sS'earlier'
p783
I157
sS'state'
p784
I2255
sS'pumping'
p785
I1699
sS'hulk'
p786
I1424
sS'quite'
p787
I364
sS'spiel'
p788
I1740
sS'besides'
p789
I2173
sS'inevitable'
p790
I635
sS'card'
p791
I391
sS'care'
p792
I1080
sS'collapsing'
p793
I307
sS'wrong'
p794
I1788
sS'thing'
p795
I834
sS'apologising'
p796
I977
sS'place'
p797
I1656
sS'vision'
p798
I1178
sS'think'
p799
I1064
sS'first'
p800
I54
sS'cheese'
p801
I2068
sS'constantly'
p802
I1977
sS'dwelling'
p803
I567
sS'ignored'
p804
I2029
sS'rachel'
p805
I398
sS'one'
p806
I27
sS'long'
p807
I447
sS'impossible'
p808
I1524
sS'message'
p809
I1161
sS'open'
p810
I88
sS'ont'
p811
I1254
sS'size'
p812
I1051
sS'city'
p813
I1361
sS'little'
p814
I261
sS'sheet'
p815
I1747
sS'humiliation'
p816
I1798
sS'caught'
p817
I210
sS'plastic'
p818
I1466
sS'anyone'
p819
I720
sS'returns'
p820
I1502
sS'twenties'
p821
I333
sS'tragic'
p822
I1733
sS'terrifying'
p823
I1668
sS'white'
p824
I943
sS'bits'
p825
I1861
sS'friend'
p826
I473
sS'gives'
p827
I859
sS'eyes'
p828
I181
sS'hug'
p829
I479
sS'adjourned'
p830
I1365
sS'mostly'
p831
I2119
sS'that'
p832
I60
sS'huh'
p833
I361
sS'chute'
p834
I898
sS'crevice'
p835
I1107
sS'than'
p836
I63
sS'wide'
p837
I470
sS'cracks'
p838
I2047
sS'unfortunately'
p839
I1174
sS'opens'
p840
I154
sS'were'
p841
I661
sS'cards'
p842
I2143
sS'poisoning'
p843
I2179
sS'disintergrates'
p844
I1122
sS'fruity'
p845
I1809
sS'and'
p846
I90
sS'hairline'
p847
I1218
sS'turned'
p848
I1675
sS'alley'
p849
I640
sS'dash'
p850
I639
sS'medical'
p851
I2211
sS'say'
p852
I847
sS'slam'
p853
I87
sS'comedian'
p854
I1940
sS'buried'
p855
I1029
sS'foiled'
p856
I206
sS'anger'
p857
I487
sS'saw'
p858
I1162
sS'any'
p859
I908
sS'speakers'
p860
I1663
sS'astonishingly'
p861
I1542
sS'bailed'
p862
I1645
sS'daggers'
p863
I1526
sS'wandered'
p864
I793
sS'equipment'
p865
I1087
sS'potential'
p866
I827
sS'take'
p867
I103
sS'destroy'
p868
I750
sS'wonder'
p869
I1831
sS'blunt'
p870
I2122
sS'begin'
p871
I614
sS'sure'
p872
I148
sS'pain'
p873
I1892
sS'opposite'
p874
I172
sS'impulsively'
p875
I815
sS'keeps'
p876
I873
sS'paid'
p877
I1543
sS'falls'
p878
I504
sS'boiling'
p879
I1508
sS'printed'
p880
I343
sS'pair'
p881
I266
sS'forever'
p882
I1009
sS'considered'
p883
I1949
sS'later'
p884
I395
sS'drive'
p885
I449
sS'axe'
p886
I144
sS'walking'
p887
I882
sS'shot'
p888
I193
sS'show'
p889
I1019
sS'fifty'
p890
I848
sS'discovered'
p891
I1981
sS'bedside'
p892
I841
sS'corner'
p893
I579
sS'quizzical'
p894
I2227
sS'line'
p895
I135
sS'ground'
p896
I458
sS'slow'
p897
I662
sS'busily'
p898
I1333
sS'treasure'
p899
I1980
sS'storms'
p900
I1867
sS'3'
I703
sS'aside'
p901
I2121
sS'only'
p902
I467
sS'manoeuvre'
p903
I890
sS'black'
p904
I372
sS'stain'
p905
I1832
sS'trails'
p906
I1932
sS'plump'
p907
I1596
sS'guarded'
p908
I821
sS'get'
p909
I233
sS'freezing'
p910
I1868
sS'infallible'
p911
I2257
sS'nearly'
p912
I1728
sS'lighter'
p913
I1258
sS'reveal'
p914
I1655
sS'reading'
p915
I2229
sS'tastelessness'
p916
I1685
sS'leather'
p917
I1672
sS'hinges'
p918
I1042
sS'morning'
p919
I1873
sS'naked'
p920
I2071
sS'jokes'
p921
I1946
sS'bison'
p922
I1942
sS'bought'
p923
I1380
sS'where'
p924
I70
sS'silently'
p925
I12
sS'reveals'
p926
I126
sS'burst'
p927
I310
sS'signs'
p928
I494
sS'seat'
p929
I955
sS'asleep'
p930
I866
sS'seal'
p931
I1000
sS'concern'
p932
I1309
sS'fails'
p933
I1563
sS'detect'
p934
I1498
sS'enlightening'
p935
I1735
sS'ways'
p936
I484
sS'alarming'
p937
I1707
sS'label'
p938
I948
sS'outside'
p939
I493
sS'between'
p940
I501
sS'chews'
p941
I2057
sS'welcomes'
p942
I1085
sS'across'
p943
I351
sS'notice'
p944
I1278
sS'killing'
p945
I728
sS'jovial'
p946
I2214
sS'singers'
p947
I551
sS'cities'
p948
I1624
sS'come'
p949
I652
sS'deliciously'
p950
I2003
sS'many'
p951
I1931
sS'region'
p952
I1402
sS'contract'
p953
I1853
sS's'
I84
sS'patrons'
p954
I460
sS'mane'
p955
I1718
sS'snarls'
p956
I182
sS'expression'
p957
I507
sS'comes'
p958
I380
sS'among'
p959
I1455
sS'afterwards'
p960
I345
sS'cancer'
p961
I1944
sS'pop'
p962
I1494
sS'accusation'
p963
I1036
sS'approval'
p964
I1427
sS'hunches'
p965
I1631
sS'runaway'
p966
I1004
sS'considering'
p967
I628
sS'save'
p968
I1776
sS'booms'
p969
I1350
sS'toothpaste'
p970
I1073
sS'breath'
p971
I1081
sS'wants'
p972
I1286
sS'direction'
p973
I1459
sS'shopping'
p974
I1331
sS'coughing'
p975
I1634
sS'gander'
p976
I104
sS'gripped'
p977
I1909
sS'dramatic'
p978
I1913
sS'suspected'
p979
I1866
sS'careful'
p980
I1934
sS'ruby'
p981
I2112
sS'former'
p982
I597
sS'those'
p983
I33
sS'paying'
p984
I759
sS'predicament'
p985
I964
sS'these'
p986
I716
sS'sauce'
p987
I999
sS'trick'
p988
I1121
sS'ignition'
p989
I1285
sS'scum'
p990
I566
sS'situation'
p991
I122
sS'mound'
p992
I1438
sS'taking'
p993
I2224
sS'eventually'
p994
I514
sS'brow'
p995
I354
sS'taser'
p996
I748
sS'coffee'
p997
I290
sS'middle'
p998
I1031
sS'good'
p999
I1099
sS'fame'
p1000
I1301
sS'worry'
p1001
I1793
sS'different'
p1002
I845
sS'pat'
p1003
I934
sS'doctor'
p1004
I2206
sS'pay'
p1005
I1488
sS'tour'
p1006
I1939
sS'ya'
p1007
I1098
sS'html'
p1008
I199
sS'struggling'
p1009
I1632
sS'events'
p1010
I2149
sS'finish'
p1011
I1040
sS'closest'
p1012
I322
sS'munch'
p1013
I2053
sS'companion'
p1014
I1802
sS'cheers'
p1015
I1767
sS'persons'
p1016
I2140
sS'running'
p1017
I113
sS'fruit'
p1018
I994
sS'footprint'
p1019
I2248
sS'drain'
p1020
I1559
sS'no'
p1021
I116
sS'without'
p1022
I755
sS'relief'
p1023
I349
sS'bottle'
p1024
I1495
sS'very'
p1025
I1445
sS'tinned'
p1026
I1327
sS'foyer'
p1027
I1722
sS'sinner'
p1028
I768
sS'taxi'
p1029
I665
sS'steamed'
p1030
I1389
sS'clogging'
p1031
I2000
sS'being'
p1032
I756
sS'money'
p1033
I754
sS'neon'
p1034
I799
sS'actions'
p1035
I1229
sS'risking'
p1036
I2254
sS'violent'
p1037
I289
sS'kill'
p1038
I1428
sS'showed'
p1039
I1816
sS'touch'
p1040
I167
sS'death'
p1041
I378
sS'hint'
p1042
I1535
sS'seems'
p1043
I1032
sS'except'
p1044
I1444
sS'lets'
p1045
I408
sS'real'
p1046
I1671
sS'around'
p1047
I95
sS'kills'
p1048
I1239
sS'desperately'
p1049
I1101
sS'read'
p1050
I390
sS'gonna'
p1051
I1007
sS'gestures'
p1052
I1057
sS'traffic'
p1053
I1316
sS'styled'
p1054
I1213
sS'world'
p1055
I93
sS'grin'
p1056
I1937
sS'swahsbuckler'
p1057
I1462
sS'stranger'
p1058
I1140
sS'nutrients'
p1059
I1117
sS't'
I72
sS'grabbingly'
p1060
I1347
sS'gaggle'
p1061
I1392
sS'tragedies'
p1062
I1965
sS'ascend'
p1063
I1260
sS'table'
p1064
I246
sS'diving'
p1065
I1105
sS'slice'
p1066
I990
sS'drenched'
p1067
I1617
sS'stops'
p1068
I1507
sS'exit'
p1069
I1659
sS'tubs'
p1070
I2189
sS'turkey'
p1071
I772
sS'business'
p1072
I765
sS'airways'
p1073
I2109
sS'uneasy'
p1074
I1353
sS'pooch'
p1075
I1533
sS'throw'
p1076
I830
sS'on'
p1077
I102
sS'stone'
p1078
I2232
sS'oh'
p1079
I1383
sS'of'
p1080
I10
sS'violence'
p1081
I1304
sS'side'
p1082
I1197
sS'informing'
p1083
I1753
sS'stand'
p1084
I218
sS'west'
p1085
I1421
sS'greet'
p1086
I1048
sS'assassin'
p1087
I1896
sS'or'
p1088
I669
sS'road'
p1089
I1282
sS'protests'
p1090
I1677
sS'hypothermia'
p1091
I2070
sS'burning'
p1092
I2198
sS'curses'
p1093
I903
sS'image'
p1094
I195
sS'blessed'
p1095
I1808
sS'cursed'
p1096
I1811
sS'everyone'
p1097
I468
sS'valuable'
p1098
I1967
sS'your'
p1099
I81
sS'stare'
p1100
I864
sS'accelerator'
p1101
I1988
sS'her'
p1102
I229
sS'area'
p1103
I1709
sS'aren'
p1104
I801
sS'distracted'
p1105
I1013
sS'hey'
p1106
I439
sS'start'
p1107
I519
sS'stealth'
p1108
I753
sS'low'
p1109
I547
sS'lot'
p1110
I601
sS'jaws'
p1111
I896
sS'politeness'
p1112
I1870
sS'heh'
p1113
I1456
sS'fish'
p1114
I2023
sS'complete'
p1115
I1053
sS'enough'
p1116
I42
sS'strikes'
p1117
I1761
sS'fighter'
p1118
I1532
sS'shrugs'
p1119
I1720
sS'trying'
p1120
I486
sS'with'
p1121
I79
sS'spice'
p1122
I532
sS'pull'
p1123
I448
sS'rush'
p1124
I379
sS'arranged'
p1125
I555
sS'comics'
p1126
I2148
sS'strawberry'
p1127
I773
sS'dirty'
p1128
I1557
sS'grasp'
p1129
I902
sS'politically'
p1130
I1951
sS'agree'
p1131
I1764
sS'gone'
p1132
I1226
sS'ad'
p1133
I2182
sS'certain'
p1134
I1228
sS'describe'
p1135
I436
sS'am'
p1136
I1351
sS'deep'
p1137
I1106
sS'an'
p1138
I57
sS'examine'
p1139
I542
sS'at'
p1140
I14
sS'walks'
p1141
I355
sS'tedious'
p1142
I962
sS'again'
p1143
I904
sS'tight'
p1144
I1506
sS'5'
I707
sS'you'
p1145
I75
sS'puppy'
p1146
I983
sS'offered'
p1147
I1855
sS'poop'
p1148
I1387
sS'teeth'
p1149
I1815
sS'peas'
p1150
I1116
sS'important'
p1151
I1848
sS'bullets'
p1152
I1238
sS'peak'
p1153
I1323
sS'recognise'
p1154
I1915
sS'tackle'
p1155
I464
sS'pool'
p1156
I2247
sS'building'
p1157
I668
sS'sardine'
p1158
I1328
sS'applause'
p1159
I1766
sS'wife'
p1160
I1
sS'hello'
p1161
I930
sS'moonlight'
p1162
I969
sS'rimmed'
p1163
I368
sS'alright'
p1164
I129
sS'peeks'
p1165
I2042
sS'waiver'
p1166
I2009
sS'all'
p1167
I80
sS'surrounded'
p1168
I1978
sS'consider'
p1169
I582
sS'pointing'
p1170
I1449
sS'lack'
p1171
I1585
sS'dollar'
p1172
I2137
sS'month'
p1173
I1363
sS'talks'
p1174
I1241
sS'follow'
p1175
I1049
sS'startled'
p1176
I2087
sS'laughing'
p1177
I2219
sS'to'
p1178
I7
sS'smile'
p1179
I627
sS'hideous'
p1180
I2155
sS'traditionally'
p1181
I1619
sS'case'
p1182
I1067
sS'woman'
p1183
I11
sS'sitting'
p1184
I268
sS'far'
p1185
I446
sS'horror'
p1186
I517
sS'fan'
p1187
I476
sS'decide'
p1188
I629
sS'fall'
p1189
I594
sS'floater'
p1190
I1610
sS'ticket'
p1191
I342
sS'condition'
p1192
I1170
sS'themes'
p1193
I1961
sS'sentimental'
p1194
I2102
sS'large'
p1195
I687
sS'dinosaur'
p1196
I699
sS'sand'
p1197
I935
sS'exploitive'
p1198
I1971
sS'small'
p1199
I1027
sS'throbbing'
p1200
I1570
sS'relenting'
p1201
I498
sS'tea'
p1202
I50
sS'streets'
p1203
I1622
sS'grabs'
p1204
I272
sS'past'
p1205
I588
sS'value'
p1206
I2103
sS'further'
p1207
I875
sS'functioning'
p1208
I802
sS'excit'
p1209
I1601
sS'90s'
p1210
I1917
sS'what'
p1211
I251
sS'darkness'
p1212
I953
sS'clock'
p1213
I2098
sS'brief'
p1214
I1147
sS'noticeably'
p1215
I1838
sS'destroyed'
p1216
I1984
sS'plush'
p1217
I825
sS'revealing'
p1218
I1749
sS'hasn'
p1219
I1287
sS'full'
p1220
I572
sS'loose'
p1221
I1342
sS'answers'
p1222
I1863
sS'tracks'
p1223
I313
sS'egging'
p1224
I2216
sS'directions'
p1225
I217
sS'strong'
p1226
I1803
sS'search'
p1227
I321
sS'ahead'
p1228
I1739
sS'stretching'
p1229
I2156
sS'experience'
p1230
I785
sS'drawers'
p1231
I1025
sS'amount'
p1232
I1500
sS'advertising'
p1233
I789
sS'pick'
p1234
I389
sS'action'
p1235
I1694
sS'rummaging'
p1236
I1513
sS'followed'
p1237
I1514
sS'members'
p1238
I1069
sS'buses'
p1239
I1359
sS'suddenly'
p1240
I239
sS'imagine'
p1241
I2131
sS'put'
p1242
I263
sS'href'
p1243
I1479
sS'pulls'
p1244
I1159
sS'eye'
p1245
I163
sS'proceed'
p1246
I1151
sS'plastered'
p1247
I1358
sS'two'
p1248
I399
sS'6'
I711
sS'taken'
p1249
I1033
sS'standee'
p1250
I178
sS'more'
p1251
I48
sS'horses'
p1252
I34
sS'flat'
p1253
I1150
sS'door'
p1254
I89
sS'company'
p1255
I666
sS'surprisingly'
p1256
I1906
sS'excuse'
p1257
I1003
sS'stick'
p1258
I1171
sS'particular'
p1259
I812
sS'known'
p1260
I1943
sS'karaoke'
p1261
I1650
sS'keeping'
p1262
I171
sS'hour'
p1263
I1324
sS'sweeps'
p1264
I481
sS'frustratingly'
p1265
I900
sS'mall'
p1266
I382
sS'escorted'
p1267
I515
sS'halts'
p1268
I883
sS'dazed'
p1269
I1138
sS'knocked'
p1270
I132
sS'male'
p1271
I331
sS'history'
p1272
I1303
sS'purchases'
p1273
I637
sS'pony'
p1274
I1912
sS'prompting'
p1275
I623
sS'lives'
p1276
I2054
sS'days'
p1277
I1890
sS'states'
p1278
I2158
sS'sense'
p1279
I681
sS'dress'
p1280
I1047
sS'narrowly'
p1281
I1153
sS'huge'
p1282
I475
sS'needs'
p1283
I1102
sS'answer'
p1284
I1452
sS'awkward'
p1285
I1148
sS'rather'
p1286
I832
sS'freshly'
p1287
I769
sS'speeding'
p1288
I1279
sS'explains'
p1289
I478
sS'wigs'
p1290
I37
sS'creature'
p1291
I1277
sS'deafeningly'
p1292
I2218
sS'sandwich'
p1293
I583
sS'okay'
p1294
I1311
sS'rude'
p1295
I833
sS'reflect'
p1296
I1833
sS'plane'
p1297
I2164
sS'lighting'
p1298
I548
sS'blood'
p1299
I254
sS'coming'
p1300
I654
sS'response'
p1301
I1146
sS'a'
I8
sS'jovi'
p1302
I198
sS'short'
p1303
I1128
sS'susan'
p1304
I29
sS'loud'
p1305
I880
sS'stash'
p1306
I1070
sS'shore'
p1307
I927
sS'assailant'
p1308
I1297
sS'egg'
p1309
I992
sS'playing'
p1310
I889
sS'help'
p1311
I626
sS'stains'
p1312
I255
sS'soon'
p1313
I495
sS'held'
p1314
I1315
sS'paper'
p1315
I1198
sS'through'
p1316
I156
sS'replies'
p1317
I224
sS'hell'
p1318
I295
sS'smiling'
p1319
I2015
sS'its'
p1320
I569
sS'arrogant'
p1321
I727
sS'unhealthy'
p1322
I2004
sS'laced'
p1323
I1689
sS'arteries'
p1324
I2001
sS'rapidly'
p1325
I1205
sS'reluctance'
p1326
I346
sS'actually'
p1327
I405
sS'late'
p1328
I114
sS'feel'
p1329
I108
sS'ruining'
p1330
I764
sS'peanuts'
p1331
I2146
sS'travelling'
p1332
I1757
sS'cutie'
p1333
I1638
sS'might'
p1334
I142
sS'wouldn'
p1335
I1537
sS'someone'
p1336
I257
sS'return'
p1337
I381
sS'food'
p1338
I695
sS'peeing'
p1339
I2199
sS'walls'
p1340
I1806
sS'vomit'
p1341
I301
sS'foot'
p1342
I208
sS'hearing'
p1343
I2175
sS'easily'
p1344
I1066
sS'coping'
p1345
I1968
sS'always'
p1346
I1270
sS'turns'
p1347
I1165
sS'found'
p1348
I1538
sS'brunette'
p1349
I271
sS'another'
p1350
I26
sS'weight'
p1351
I452
sS'house'
p1352
I86
sS'energy'
p1353
I870
sS'hard'
p1354
I1895
sS'idea'
p1355
I808
sS'accidentally'
p1356
I2093
sS'oil'
p1357
I1716
sS'expect'
p1358
I1554
sS'inflated'
p1359
I1441
sS'todo'
p1360
I691
sS'comic'
p1361
I1945
sS'really'
p1362
I474
sS'flower'
p1363
I556
sS'alcohol'
p1364
I1486
sS'since'
p1365
I410
sS'7'
I721
sS'occurs'
p1366
I1322
sS'ass'
p1367
I987
sS'nervously'
p1368
I477
sS'pathetic'
p1369
I1219
sS'alleviating'
p1370
I1325
sS'horse'
p1371
I20
sS'reason'
p1372
I1369
sS'unsightly'
p1373
I1830
sS'dire'
p1374
I121
sS'airway'
p1375
I1744
sS'ask'
p1376
I1222
sS'heroic'
p1377
I1762
sS'albatross'
p1378
I1743
sS'launch'
p1379
I463
sS'fowls'
p1380
I1591
sS'american'
p1381
I1267
sS'leading'
p1382
I1131
sS'fallen'
p1383
I956
sS'dont'
p1384
I1237
sS'dino'
p1385
I893
sS'jabbed'
p1386
I340
sS'knocking'
p1387
I176
sS'number'
p1388
I664
sS'feet'
p1389
I925
sS'humourous'
p1390
I2249
sS'done'
p1391
I979
sS'miss'
p1392
I73
sS'story'
p1393
I400
sS'aven'
p1394
I2183
sS'twenty'
p1395
I1210
sS'threatening'
p1396
I961
sS'least'
p1397
I630
sS'storm'
p1398
I131
sS'dealing'
p1399
I949
sS'store'
p1400
I2036
sS'gleefully'
p1401
I2202
sS'behind'
p1402
I160
sS'relieved'
p1403
I2197
sS'immediate'
p1404
I1126
sS'draped'
p1405
I1737
sS'appreciation'
p1406
I119
sS'luckily'
p1407
I783
sS'part'
p1408
I1442
sS'boredom'
p1409
I712
sS'believe'
p1410
I590
sS'stairs'
p1411
I868
sS'reflection'
p1412
I1837
sS'albeit'
p1413
I2019
sS'kind'
p1414
I795
sS'b'
I2062
sS'double'
p1415
I1412
sS'supposed'
p1416
I673
sS'colour'
p1417
I2176
sS'cleaner'
p1418
I1560
sS'swerve'
p1419
I1433
sS'basically'
p1420
I1998
sS'wasnt'
p1421
I1251
sS'fights'
p1422
I1464
sS'graffiti'
p1423
I792
sS'aged'
p1424
I1665
sS'fading'
p1425
I94
sS'lie'
p1426
I713
sS'built'
p1427
I2030
sS'dancing'
p1428
I1044
sS'self'
p1429
I118
sS'trapped'
p1430
I1599
sS'commotion'
p1431
I1314
sS'cropped'
p1432
I1991
sS'also'
p1433
I1299
sS'lifts'
p1434
I684
sS'build'
p1435
I2246
sS'finding'
p1436
I1026
sS'tool'
p1437
I2205
sS'serene'
p1438
I968
sS'towards'
p1439
I77
sS'reach'
p1440
I2092
sS'react'
p1441
I2050
sS'most'
p1442
I98
sS'eaten'
p1443
I1626
sS'nothing'
p1444
I323
sS'stands'
p1445
I1187
sS'windows'
p1446
I952
sS'clear'
p1447
I1901
sS'sometimes'
p1448
I2058
sS'cover'
p1449
I552
sS'traditional'
p1450
I1715
sS'bullseye'
p1451
I503
sS'clean'
p1452
I2013
sS'latest'
p1453
I790
sS'lying'
p1454
I192
sS'giggles'
p1455
I2201
sS'mimes'
p1456
I2221
sS'carefully'
p1457
I1680
sS'melody'
p1458
I1661
sS'fine'
p1459
I984
sS'find'
p1460
I96
sS'impact'
p1461
I1989
sS'wraps'
p1462
I305
sS'scooter'
p1463
I604
sS'firewood'
p1464
I146
sS'nonchalance'
p1465
I1520
sS'idiots'
p1466
I1378
sS'pretty'
p1467
I1924
sS'8'
I725
sS'his'
p1468
I49
sS'hit'
p1469
I985
sS'hiv'
p1470
I1974
sS'permission'
p1471
I1476
sS'crappity'
p1472
I1385
sS'strut'
p1473
I2118
sS'famous'
p1474
I550
sS'feels'
p1475
I872
sS'rest'
p1476
I1568
sS'reply'
p1477
I1800
sS'during'
p1478
I1399
sS'him'
p1479
I161
sS'catcher'
p1480
I1336
sS'motorcycles'
p1481
I806
sS'nibbles'
p1482
I2238
sS'cry'
p1483
I2233
sS'remove'
p1484
I259
sS'brush'
p1485
I1556
sS'common'
p1486
I1954
sS'cease'
p1487
I1786
sS'poisoned'
p1488
I1653
sS'snowstorm'
p1489
I1401
sS'approaching'
p1490
I1206
sS'insane'
p1491
I223
sS'set'
p1492
I918
sS'signify'
p1493
I1269
sS'disapproving'
p1494
I1823
sS'throwing'
p1495
I1859
sS'culture'
p1496
I2134
sS'see'
p1497
I250
sS'bare'
p1498
I2188
sS'descriptions'
p1499
I693
sS'close'
p1500
I1071
sS'arm'
p1501
I913
sS'spirits'
p1502
I2215
sS'pictures'
p1503
I549
sS'currently'
p1504
I819
sS'woo'
p1505
I2107
sS'won'
p1506
I1317
sS'various'
p1507
I1550
sS'probably'
p1508
I1422
sS'knowing'
p1509
I1458
sS'responses'
p1510
I704
sS'sold'
p1511
I1620
sS'attention'
p1512
I1530
sS'outfit'
p1513
I100
sS'barrack'
p1514
I741
sS'remaining'
p1515
I82
sS'both'
p1516
I1011
sS'last'
p1517
I190
sS'restaurant'
p1518
I1052
sS'barely'
p1519
I1711
sS'became'
p1520
I1992
sS'buzz'
p1521
I1158
sS'let'
p1522
I650
sS'load'
p1523
I2064
sS'consume'
p1524
I1681
sS'drunk'
p1525
I1115
sS'simple'
p1526
I371
sS'sweet'
p1527
I1574
sS'smashing'
p1528
I1566
sS'smother'
p1529
I993
sS'whatever'
p1530
I2056
sS'coincidence'
p1531
I1166
sS'mumble'
p1532
I2184
sS'patiently'
p1533
I490
sS'pr'
p1534
I1367
sS'devil'
p1535
I1038
sS'dogsitting'
p1536
I1641
sS'due'
p1537
I2025
sS'damn'
p1538
I645
sS'brick'
p1539
I536
sS'meeting'
p1540
I234
sS'empty'
p1541
I2120
sS'slips'
p1542
I1957
sS'vans'
p1543
I1621
sS'lived'
p1544
I2055
sS'partly'
p1545
I621
sS'else'
p1546
I1298
sS'fund'
p1547
I417
sS'determination'
p1548
I682
sS'wedding'
p1549
I844
sS'funk'
p1550
I1813
sS'utmost'
p1551
I1869
sS'look'
p1552
I240
sS'straight'
p1553
I186
sS'healthy'
p1554
I1119
sS'while'
p1555
I170
sS'replaced'
p1556
I853
sS'leaning'
p1557
I596
sS'fun'
p1558
I443
sS'loop'
p1559
I1778
sS'erupting'
p1560
I302
sS'leans'
p1561
I1639
sS'reads'
p1562
I347
sS'nightstand'
p1563
I1414
sS'ready'
p1564
I281
sS'rid'
p1565
I763
sS'chase'
p1566
I606
sS'presentable'
p1567
I2115
sS'choking'
p1568
I287
sS'belong'
p1569
I1209
sS'grand'
p1570
I1856
sS'9'
I730
sS'higher'
p1571
I1366
sS'arrives'
p1572
I1248
sS'painless'
p1573
I2181
sS'yesterday'
p1574
I905
sS'flows'
p1575
I1662
sS'moment'
p1576
I576
sS'levels'
p1577
I757
sS'stack'
p1578
I995
sS'early'
p1579
I1904
sS'lower'
p1580
I894
sS'spent'
p1581
I1341
sS'wedged'
p1582
I1289
sS'picks'
p1583
I341
sS'person'
p1584
I729
sS'cheer'
p1585
I2217
sS'edge'
p1586
I1567
sS'spend'
p1587
I189
sS'ceo'
p1588
I1741
sS'shivering'
p1589
I2074
sS'aroma'
p1590
I1810
sS'distracting'
p1591
I1842
sS'rumbling'
p1592
I1827
sS'questions'
p1593
I1364
sS'using'
p1594
I1783
sS'assassins'
p1595
I1528
sS'loading'
p1596
I642
sS'workers'
p1597
I425
sS'alternate'
p1598
I731
sS'source'
p1599
I1900
sS'location'
p1600
I1587
sS'excited'
p1601
I1349
sS'bin'
p1602
I803
sS'customers'
p1603
I1754
sS'vendor'
p1604
I680
sS'big'
p1605
I1561
sS'couple'
p1606
I843
sS'game'
p1607
I738
sS'quest'
p1608
I613
sS'standees'
p1609
I1302
sS'bit'
p1610
I359
sS'flannel'
p1611
I1103
sS'knock'
p1612
I1083
sS'success'
p1613
I262
sS'glove'
p1614
I817
sS'shapes'
p1615
I558
sS'continue'
p1616
I1405
sS'surging'
p1617
I1893
sS'travle'
p1618
I1782
sS'essential'
p1619
I1582
sS'often'
p1620
I432
sS'some'
p1621
I47
sS'back'
p1622
I264
sS'sighs'
p1623
I1167
sS'lips'
p1624
I685
sS'mighty'
p1625
I1439
sS'sight'
p1626
I1130
sS'mirror'
p1627
I107
sS'clinking'
p1628
I1490
sS'sprint'
p1629
I871
sS'describing'
p1630
I428
sS'pee'
p1631
I1725
sS'pea'
p1632
I1615
sS'either'
p1633
I1646
sS'be'
p1634
I53
sS'run'
p1635
I749
sS'ufo'
p1636
I1335
sS'rub'
p1637
I1888
sS'step'
p1638
I683
sS'nowhere'
p1639
I1093
sS'br'
p1640
I780
sS'crap'
p1641
I1384
sS'smothered'
p1642
I997
sS'by'
p1643
I69
sS'goods'
p1644
I2194
sS'anything'
p1645
I168
sS'cigarette'
p1646
I1257
sS'lifeless'
p1647
I315
sS'slams'
p1648
I285
sS'hatred'
p1649
I2080
sS'silence'
p1650
I1149
sS'david'
p1651
I1018
sS'into'
p1652
I188
sS'within'
p1653
I1362
sS'tofu'
p1654
I836
sS'framed'
p1655
I1189
sS'services'
p1656
I309
sS'rolls'
p1657
I350
sS'realisation'
p1658
I1644
sS'infuriating'
p1659
I1220
sS'tasting'
p1660
I694
sS'placing'
p1661
I689
sS'fast'
p1662
I752
sS'occupy'
p1663
I751
sS'infected'
p1664
I2154
sS'suit'
p1665
I1721
sS'forward'
p1666
I236
sS'bored'
p1667
I1885
sS'spat'
p1668
I392
sS'record'
p1669
I2114
sS'rummage'
p1670
I1024
sS'elsewhere'
p1671
I2038
sS'poster'
p1672
I1337
sS'atop'
p1673
I1883
sS'cloth'
p1674
I247
sS'tragically'
p1675
I781
sS'forbidding'
p1676
I1840
sS'crane'
p1677
I891
sS'raising'
p1678
I1200
sS'fades'
p1679
I941
sS'skull'
p1680
I1571
sS'fries'
p1681
I2063
sS'up'
p1682
I219
sS'us'
p1683
I1642
sS'international'
p1684
I1993
sS'uh'
p1685
I471
sS'planes'
p1686
I1758
sS'fried'
p1687
I991
sS'called'
p1688
I28
sS'associated'
p1689
I1330
sS'beckoning'
p1690
I1306
sS'entrance'
p1691
I814
sS'doesn'
p1692
I508
sS'warning'
p1693
I1562
sS'obtuse'
p1694
I2144
sS'wuff'
p1695
I2039
sS'paradox'
p1696
I1779
sS'nah'
p1697
I375
sS'excuses'
p1698
I1234
sS'reputation'
p1699
I1930
sS'nice'
p1700
I1097
sS'brushing'
p1701
I1886
sS'smiles'
p1702
I2226
sS'scrub'
p1703
I1100
sS'energetic'
p1704
I1922
sS'accidental'
p1705
I1801
sS'lend'
p1706
I1089
sS'favourite'
p1707
I1796
sS'prepared'
p1708
I1911
sS'helping'
p1709
I1891
sS'meaning'
p1710
I1751
sS'squirm'
p1711
I1844
sS'allowing'
p1712
I1545
sS'smiled'
p1713
I1818
sS'depicting'
p1714
I2161
sS'charming'
p1715
I2129
sS'ago'
p1716
I849
sS'happier'
p1717
I62
sS'overlooking'
p1718
I402
sS'age'
p1719
I732
sS'sudden'
p1720
I1643
sS'implied'
p1721
I1035
sS'came'
p1722
I2043
sS'fresh'
p1723
I1110
sS'menace'
p1724
I180
sS'having'
p1725
I1123
sS'rinse'
p1726
I1581
sS'once'
p1727
I1015
sS'wrestle'
p1728
I878
sS'results'
p1729
I1959
sS'tested'
p1730
I2151
sS'go'
p1731
I1168
sS'conversation'
p1732
I1736
sS'seemed'
p1733
I1979
sS'concerned'
p1734
I1201
sS'peering'
p1735
I2230
sS'young'
p1736
I362
sS'send'
p1737
I1777
sS'culinary'
p1738
I786
sS'fatal'
p1739
I1947
sS'sent'
p1740
I2106
sS'breathing'
p1741
I2078
sS'continues'
p1742
I492
sS'wave'
p1743
I348
sS'accuse'
p1744
I1970
sS'bounding'
p1745
I1014
sS'drinking'
p1746
I574
sS'arrange'
p1747
I667
sS'entire'
p1748
I451
sS'exits'
p1749
I1340
sS'positions'
p1750
I1368
sS'shock'
p1751
I540
sS'ryan'
p1752
I1473
sS'try'
p1753
I877
sS'race'
p1754
I461
sS'car'
p1755
I489
sS'unsatisfied'
p1756
I1377
sS'sensation'
p1757
I1994
sS'mishap'
p1758
I1773
sS'jump'
p1759
I1540
sS'perched'
p1760
I1881
sS'odd'
p1761
I58
sS'power'
p1762
I1594
sS'giving'
p1763
I1022
sS'waiting'
p1764
I496
sS'body'
p1765
I316
sS'led'
p1766
I2150
sS'got'
p1767
I2225
sS'gathered'
p1768
I1504
sS'sins'
p1769
I589
sS'baring'
p1770
I1750
sS'growing'
p1771
I2079
sS'focused'
p1772
I609
sS'sink'
p1773
I1182
sS'others'
p1774
I328
sS'sing'
p1775
I809
sS'fifteen'
p1776
I1505
sS'great'
p1777
I1348
sS'didn'
p1778
I1310
sS'receive'
p1779
I648
sS'laughter'
p1780
I1354
sS'larger'
p1781
I1374
sS'leaving'
p1782
I1835
sS'suggests'
p1783
I571
sS'resulting'
p1784
I1565
sS'opinion'
p1785
I1964
sS'climb'
p1786
I1546
sS'makes'
p1787
I726
sS'wig'
p1788
I942
sS'named'
p1789
I22
sS'nearest'
p1790
I273
sS'win'
p1791
I910
sS'manage'
p1792
I1851
sS'duck'
p1793
I1152
sS'singing'
p1794
I528
sS'standing'
p1795
I562
sS'use'
p1796
I435
sS'from'
p1797
I38
sS'figure'
p1798
I1960
sS'remains'
p1799
I1196
sS'normal'
p1800
I2167
sS'next'
p1801
I643
sS'few'
p1802
I17
sS'cram'
p1803
I2240
sS'stage'
p1804
I1664
sS'disgustingly'
p1805
I2002
sS'sort'
p1806
I854
sS'clever'
p1807
I791
sS'upcoming'
p1808
I1938
sS'started'
p1809
I1875
sS'becomes'
p1810
I288
sS'impress'
p1811
I1820
sS'infection'
p1812
I1975
sS'bodily'
p1813
I2117
sS'carrying'
p1814
I784
sS'ashamed'
p1815
I1252
sS'baby'
p1816
I1124
sS'appointed'
p1817
I1576
sS'women'
p1818
I527
sS'high'
p1819
I1175
sS'this'
p1820
I115
sS'clients'
p1821
I2105
sS'insists'
p1822
I1005
sS'pour'
p1823
I1496
sS'recession'
p1824
I1755
sS'anywhere'
p1825
I2243
sS'obvious'
p1826
I1216
sS'thin'
p1827
I1028
sS'meet'
p1828
I1045
sS'closing'
p1829
I159
sS'drops'
p1830
I656
sS'performed'
p1831
I1230
sS'control'
p1832
I2040
sS'process'
p1833
I179
sS'billboards'
p1834
I1360
sS'dripping'
p1835
I2241
sS'pieces'
p1836
I2035
sS'atone'
p1837
I587
sS'tag'
p1838
I800
sS'exclaims'
p1839
I938
sS'something'
p1840
I816
sS'slip'
p1841
I101
sS'lamb'
p1842
I2066
sS'sir'
p1843
I1799
sS'sip'
p1844
I1061
sS'sit'
p1845
I488
sS'lamp'
p1846
I1415
sS'instead'
p1847
I1578
sS'establishment'
p1848
I568
sS'buildings'
p1849
I1551
sS'cupboard'
p1850
I1185
sS'watch'
p1851
I327
sS'collection'
p1852
I1184
sS'hawk'
p1853
I1215
sS'tomato'
p1854
I1618
sS'light'
p1855
I78
sS'gulps'
p1856
I688
sS'interrupted'
p1857
I299
sS'crazed'
p1858
I1065
sS'lined'
p1859
I807
sS'move'
p1860
I235
sS'whilst'
p1861
I1627
sS'looks'
p1862
I162
sS'horns'
p1863
I2090
sS'lounge'
p1864
I1050
sS'll'
p1865
I52
sS'winning'
p1866
I706
sS'permanent'
p1867
I2007
sS'restrain'
p1868
I462
sS'choose'
p1869
I1792
sS'stalled'
p1870
I1318
sS'covered'
p1871
I1132
sS'bumbling'
p1872
I1334
sS'flour'
p1873
I2190
sS'practice'
p1874
I2208
sS'mention'
p1875
I1291
sS'socks'
p1876
I2111
sS'snoopy'
p1877
I2147
sS'hands'
p1878
I286
sS'front'
p1879
I311
sS'flee'
p1880
I243
sS'day'
p1881
I67
sS'grumbling'
p1882
I1515
sS'warned'
p1883
I426
sS'skilsl'
p1884
I717
sS'deciding'
p1885
I1880
sS'slipping'
p1886
I874
sS'weather'
p1887
I136
sS'rockets'
p1888
I1703
sS'shaking'
p1889
I335
sS'glasses'
p1890
I369
sS'doing'
p1891
I225
sS'conquers'
p1892
I1795
sS'related'
p1893
I828
sS'inverted'
p1894
I1611
sS'irritation'
p1895
I230
sS'our'
p1896
I1648
sS'wander'
p1897
I967
sS'out'
p1898
I133
sS'rex'
p1899
I823
sS'giant'
p1900
I2162
sS'entertainment'
p1901
I1055
sS'announces'
p1902
I1649
sS'smog'
p1903
I744
sS'stun'
p1904
I1468
sS'red'
p1905
I367
sS'yawns'
p1906
I1920
sS'70s'
p1907
I1905
sS'approaches'
p1908
I334
sS'limted'
p1909
I1227
sS'chilli'
p1910
I998
sS'backwards'
p1911
I456
sS'could'
p1912
I442
sS'keep'
p1913
I767
sS'stride'
p1914
I679
sS'length'
p1915
I914
sS'receding'
p1916
I1217
sS'vegetables'
p1917
I2196
sS'there'
p1918
I166
sS'third'
p1919
I1388
sS'savour'
p1920
I1684
sS'yells'
p1921
I1021
sS'scene'
p1922
I724
sS'reaches'
p1923
I1552
sS'sadly'
p1924
I907
sS'dump'
p1925
I2037
sS'system'
p1926
I1056
sS'their'
p1927
I39
sS'wrapped'
p1928
I690
sS'perfectly'
p1929
I1882
sS'final'
p1930
I1002
sS'groggily'
p1931
I1134
sS'stomach'
p1932
I1828
sS'gear'
p1933
I326
sS'exactly'
p1934
I1292
sS'depressing'
p1935
I2236
sS'herself'
p1936
I2203
sS'haven'
p1937
I1771
sS'remember'
p1938
I111
sS'loved'
p1939
I32
sS'photograph'
p1940
I1416
sS'boring'
p1941
I434
sS'voompf'
p1942
I1440
sS'bed'
p1943
I714
sS'loves'
p1944
I2174
sS'lover'
p1945
I1531
sS'distinguished'
p1946
I957
sS'are'
p1947
I252
sS'imaginative'
p1948
I1447
sS'lightly'
p1949
I522
sS'deodorant'
p1950
I1584
sS'gently'
p1951
I972
sS'tonight'
p1952
I672
sS'gentle'
p1953
I1453
sS'have'
p1954
I409
sS'need'
p1955
I858
sS'clearly'
p1956
I253
sS'she'
p1957
I31
sS'screw'
p1958
I2108
sS'dishes'
p1959
I2044
sS'able'
p1960
I2245
sS'mid'
p1961
I332
sS'mechanism'
p1962
I1969
sS'which'
p1963
I292
sS'so'
p1964
I595
sS'trundles'
p1965
I982
sS'who'
p1966
I125
sS'noggin'
p1967
I1155
sS'demise'
p1968
I636
sS'device'
p1969
I2130
sS'alarmed'
p1970
I1139
sS'why'
p1971
I1112
sS'clasp'
p1972
I895
sS'stranded'
p1973
I733
sS'face'
p1974
I213
sS'looked'
p1975
I1821
sS'businessman'
p1976
I1666
sS'painting'
p1977
I1420
sS'planks'
p1978
I1898
sS'fact'
p1979
I1204
sS'emerging'
p1980
I1693
sS'selection'
p1981
I1670
sS'text'
p1982
I723
sS'bring'
p1983
I1086
sS'bedroom'
p1984
I1095
sS'rough'
p1985
I944
sS'trivial'
p1986
I2116
sS'ha'
p1987
I1173
sS'based'
p1988
I1471
sS'knowledge'
p1989
I634
sS'hops'
p1990
I1686
sS'should'
p1991
I1079
sS'surroundings'
p1992
I543
sS'jam'
p1993
I774
sS'emitting'
p1994
I85
sS'handsome'
p1995
I1425
sS'jab'
p1996
I387
sS'hope'
p1997
I655
sS'photographs'
p1998
I2014
sS'means'
p1999
I1023
sS'familiar'
p2000
I1660
sS'diagnosing'
p2001
I2204
sS'lucky'
p2002
I2171
sS'ones'
p2003
I438
sS'words'
p2004
I433
sS'diarroiah'
p2005
I2060
sS'areas'
p2006
I1583
sS'smash'
p2007
I1280
sS'glory'
p2008
I1606
sS'course'
p2009
I1432
sS'eyebrow'
p2010
I1202
sS'calling'
p2011
I1225
sS'stuff'
p2012
I766
sS'overflowing'
p2013
I804
sS'contain'
p2014
I1572
sS'grab'
p2015
I876
sS'exists'
p2016
I1787
sS'deathspotting'
p2017
I360
sS'machineofdeath'
p2018
I1481
sS'snorts'
p2019
I1629
sS'creating'
p2020
I2133
sS'closes'
p2021
I1143
sS'closet'
p2022
I1418
sS'rags'
p2023
I1558
sS'musky'
p2024
I1411
sS'genius'
p2025
I1345
sS'written'
p2026
I1469
sS'correctly'
p2027
I2100
sS'rendition'
p2028
I530
sS'pants'
p2029
I499
sS'explosive'
p2030
I2059
sS'ability'
p2031
I1408
sS'weak'
p2032
I901
sS'job'
p2033
I227
sS'merry'
p2034
I483
sS'police'
p2035
I516
sS'jon'
p2036
I196
sS'staring'
p2037
I469
sS'hits'
p2038
I534
sS'sniff'
p2039
I130
sS'career'
p2040
I1857
sS'joke'
p2041
I1636
sS'invited'
p2042
I440
sS'admit'
p2043
I55
sS'safely'
p2044
I820
sS'co'
p2045
I424
sS'toilet'
p2046
I1839
sS'wall'
p2047
I505
sS'cb'
p2048
I139
sS'walk'
p2049
I265
sS'laugh'
p2050
I1630
sS'gave'
p2051
I1652
sS'confronts'
p2052
I1233
sS'quit'
p2053
I598
sS'dazzling'
p2054
I911
sS'responds'
p2055
I931
sS'gaze'
p2056
I2187
sS'slowly'
p2057
I646
sS'treat'
p2058
I1493
sS'smatter'
p2059
I775
sS'ah'
p2060
I1573
sS'shoulders'
p2061
I921
sS'finishes'
p2062
I1450
sS'received'
p2063
I1958
sS'deer'
p2064
I1409
sS'sufficient'
p2065
I1499
sS'crappy'
p2066
I1386
sS'hmm'
p2067
I1133
sS'ensuring'
p2068
I1682
sS'hobby'
p2069
I2237
sS'volunteer'
p2070
I2172
sS'laser'
p2071
I1780
sS'harder'
p2072
I1395
sS'as'
p2073
I5
sS'irate'
p2074
I1590
sS'will'
p2075
I1262
sS'hahaha'
p2076
I2185
sS'wild'
p2077
I429
sS'instantly'
p2078
I1983
sS'discoveries'
p2079
I2125
sS'groin'
p2080
I1346
sS'supply'
p2081
I1527
sS've'
p2082
I150
sS'almost'
p2083
I617
sS'thus'
p2084
I1825
sS'drips'
p2085
I1683
sS'rips'
p2086
I1041
sS'malls'
p2087
I1332
sS'swinging'
p2088
I1156
sS'ave'
p2089
I1864
sS'sits'
p2090
I1144
sS'conserve'
p2091
I1592
sS'portray'
p2092
I1731
sS'capture'
p2093
I743
sS'perhaps'
p2094
I782
sS'inch'
p2095
I1894
sS'party'
p2096
I1858
sS'gets'
p2097
I1084
sS'joyously'
p2098
I926
sS'injured'
p2099
I1443
sS'incorrect'
p2100
I1952
sS'http'
p2101
I1480
sS'appearances'
p2102
I702
sS'drink'
p2103
I46
sS'effect'
p2104
I1501
sS'dust'
p2105
I220
sS'off'
p2106
I221
sS'center'
p2107
I200
sS'trudge'
p2108
I1125
sS'i'
I51
sS'weapon'
p2109
I1781
sS'well'
p2110
I404
sS'fighting'
p2111
I2082
sS'thought'
p2112
I64
sS'english'
p2113
I1997
sS'position'
p2114
I958
sS'usual'
p2115
I869
sS'fixated'
p2116
I2153
sS'cameo'
p2117
I701
sS'moments'
p2118
I18
sS'claiming'
p2119
I1973
sS'accurate'
p2120
I2142
sS'fishing'
p2121
I325
sS'wee'
p2122
I822
sS'point'
p2123
I465
sS'sky'
p2124
I1759
sS'handy'
p2125
I826
sS'battery'
p2126
I1593
sS'add'
p2127
I610
sS'combine'
p2128
I1074
sS'indignation'
p2129
I1536
sS'kick'
p2130
I2244
sS'livin'
p2131
I520
sS'fate'
p2132
I638
sS'government'
p2133
I760
sS'five'
p2134
I1211
sS'know'
p2135
I671
sS'desk'
p2136
I205
sS'press'
p2137
I1063
sS'immediately'
p2138
I1687
sS'insert'
p2139
I384
sS'like'
p2140
I535
sS'lost'
p2141
I1129
sS'sofa'
p2142
I1669
sS'sized'
p2143
I2166
sS'stagger'
p2144
I1724
sS'lose'
p2145
I2239
sS'become'
p2146
I1012
sS'works'
p2147
I2136
sS'because'
p2148
I986
sS'alive'
p2149
I2041
sS'hair'
p2150
I40
sS'proper'
p2151
I1290
sS'home'
p2152
I615
sS'blade'
p2153
I1897
sS'neglecting'
p2154
I2026
sS'lead'
p2155
I1193
sS'avoid'
p2156
I1434
sS'kettle'
p2157
I1183
sS'delightful'
p2158
I1607
sS'leap'
p2159
I204
sS'does'
p2160
I1176
sS'belt'
p2161
I1667
sS'regain'
p2162
I1135
sS'pomeranian'
p2163
I1274
sS'schedule'
p2164
I1403
sS'slum'
p2165
I2170
sS'hiding'
p2166
I228
sS'about'
p2167
I427
sS'getting'
p2168
I209
sS'universe'
p2169
I1775
sS'choppin'
p2170
I145
sS'carries'
p2171
I497
sS'sweat'
p2172
I353
sS'tongue'
p2173
I1887
sS'own'
p2174
I207
sS'letters'
p2175
I2159
sS'h2'
p2176
I2086
sS'h1'
p2177
I201
sS'flailing'
p2178
I276
sS'h4'
p2179
I393
sS'assess'
p2180
I951
sS'doesnt'
p2181
I1224
sS'tiny'
p2182
I892
sS'roads'
p2183
I1437
sS'couldnt'
p2184
I1790
sS'pointless'
p2185
I2124
sS'housing'
p2186
I1419
sS'disapproval'
p2187
I2210
sS'noticed'
p2188
I151
sS'bump'
p2189
I1068
sS'much'
p2190
I1082
sS'notices'
p2191
I1688
sS'naturally'
p2192
I2209
sS'buy'
p2193
I2096
sS'north'
p2194
I1474
sS'bus'
p2195
I653
sS'but'
p2196
I59
sS'delivery'
p2197
I649
sS'lowered'
p2198
I981
sS'pantry'
p2199
I1186
sS'wince'
p2200
I385
sS'squeeze'
p2201
I1072
sS'eat'
p2202
I1114
sS'he'
p2203
I3
sS'made'
p2204
I36
sS'places'
p2205
I1510
sS'dangerous'
p2206
I565
sS'signed'
p2207
I1852
sS'excitement'
p2208
I1752
sS'placed'
p2209
I1417
sS'below'
p2210
I920
sS'stories'
p2211
I735
sS'piece'
p2212
I996
sS'minutes'
p2213
I1261
sS'display'
p2214
I1748
sS'deaths'
p2215
I2052
sS'pie'
p2216
I1609
sS'utensils'
p2217
I2123
sS'beats'
p2218
I1805
sS'goodness'
p2219
I2242
sS'shooting'
p2220
I1457
sS'proceeds'
p2221
I293
sS'functions'
p2222
I2099
sS'nonetheless'
p2223
I963
sS'dressed'
p2224
I1819
sS'boot'
p2225
I607
sS'lately'
p2226
I2200
sS'other'
p2227
I270
sS'wipes'
p2228
I352
sS'ledge'
p2229
I211
sS'repute'
p2230
I797
sS'incredibly'
p2231
I1742
sS'star'
p2232
I852
sS'waves'
p2233
I929
sS'tackiest'
p2234
I545
sS'unoriginal'
p2235
I1446
sS'bundle'
p2236
I1865
sS'stay'
p2237
I164
sS'chance'
p2238
I612
sS'kinda'
p2239
I740
sS'friends'
p2240
I441
sS'inspiration'
p2241
I1376
sS'stirred'
p2242
I358
sS'understand'
p2243
I1111
sS'honchos'
p2244
I2113
s.