(dp0
S'all'
p1
I127
sS'wrestle'
p2
I400
sS'four'
p3
I283
sS'known'
p4
I323
sS'go'
p5
I61
sS'chair'
p6
I34
sS'suicide'
p7
I408
sS'to'
p8
I32
sS'under'
p9
I245
sS'dramatically'
p10
I239
sS'me'
p11
I217
sS'worse'
p12
I171
sS'barstool'
p13
I160
sS'x9d'
p14
I123
sS'decide'
p15
I275
sS'floater'
p16
I369
sS'minute'
p17
I75
sS'exits'
p18
I234
sS'did'
p19
I264
sS'gun'
p20
I88
sS'try'
p21
I31
sS'settle'
p22
I397
sS'quick'
p23
I398
sS'be'
p24
I132
sS'tea'
p25
I186
sS'zero'
p26
I347
sS'street'
p27
I222
sS'what'
p28
I0
sS'hide'
p29
I318
sS'pomeranian'
p30
I365
sS'cleanliness'
p31
I395
sS'remain'
p32
I161
sS'poison'
p33
I151
sS'new'
p34
I302
sS'shoo'
p35
I141
sS'let'
p36
I163
sS'others'
p37
I18
sS'sing'
p38
I139
sS'wait'
p39
I55
sS'search'
p40
I381
sS'ahead'
p41
I353
sS'experience'
p42
I341
sS'drawers'
p43
I193
sS'bon'
p44
I26
sS'wig'
p45
I111
sS'win'
p46
I281
sS'duck'
p47
I30
sS'apply'
p48
I272
sS'yourself'
p49
I184
sS'use'
p50
I25
sS'from'
p51
I35
sS'would'
p52
I324
sS'two'
p53
I80
sS'next'
p54
I221
sS'jam'
p55
I93
sS'call'
p56
I72
sS'strike'
p57
I69
sS'survive'
p58
I178
sS'tell'
p59
I45
sS'more'
p60
I316
sS'knows'
p61
I174
sS'company'
p62
I209
sS'excuse'
p63
I216
sS'baby'
p64
I282
sS'hold'
p65
I345
sS'blocking'
p66
I358
sS'must'
p67
I131
sS'shoot'
p68
I63
sS'none'
p69
I412
sS'room'
p70
I385
sS'this'
p71
I125
sS'car'
p72
I60
sS'work'
p73
I333
sS'mall'
p74
I44
sS'sour'
p75
I145
sS'can'
p76
I321
sS'meet'
p77
I220
sS'my'
p78
I291
sS'could'
p79
I168
sS'heart'
p80
I205
sS'crazy'
p81
I134
sS'tap'
p82
I361
sS'slip'
p83
I386
sS'give'
p84
I265
sS'lordy'
p85
I295
sS'fuck'
p86
I415
sS'death'
p87
I48
sS'want'
p88
I307
sS'dignity'
p89
I105
sS'david'
p90
I238
sS'sir'
p91
I414
sS'end'
p92
I129
sS'stride'
p93
I292
sS'rather'
p94
I190
sS'machine'
p95
I235
sS'how'
p96
I126
sS'interview'
p97
I346
sS'wigs'
p98
I260
sS'sandwich'
p99
I367
sS'cupboard'
p100
I194
sS'watch'
p101
I403
sS'dive'
p102
I244
sS'after'
p103
I339
sS'reflect'
p104
I338
sS'blood'
p105
I314
sS'a'
p106
I9
sS'jovi'
p107
I27
sS'light'
p108
I350
sS'sit'
p109
I50
sS'truck'
p110
I356
sS'things'
p111
I5
sS'oysters'
p112
I143
sS'help'
p113
I382
sS'office'
p114
I335
sS'stains'
p115
I315
sS'over'
p116
I241
sS'move'
p117
I247
sS'satisfied'
p118
I309
sS'paper'
p119
I405
sS'through'
p120
I204
sS'hell'
p121
I383
sS'still'
p122
I342
sS'before'
p123
I65
sS'diarroiah'
p124
I410
sS'll'
p125
I176
sS'better'
p126
I284
sS'differently'
p127
I6
sS'good'
p128
I267
sS'return'
p129
I41
sS'food'
p130
I229
sS'hands'
p131
I37
sS'not'
p132
I298
sS'now'
p133
I304
sS'day'
p134
I308
sS'bills'
p135
I310
sS'side'
p136
I407
sS'mean'
p137
I103
sS'calmly'
p138
I246
sS'everyone'
p139
I236
sS'yeah'
p140
I39
sS'pantry'
p141
I195
sS'logo'
p142
I210
sS'happen'
p143
I136
sS'really'
p144
I299
sS'leave'
p145
I89
sS'driving'
p146
I257
sS'defend'
p147
I183
sS'your'
p148
I42
sS'looking'
p149
I200
sS're'
p150
I99
sS'nervously'
p151
I363
sS'ask'
p152
I312
sS'quits'
p153
I77
sS'card'
p154
I156
sS'care'
p155
I138
sS'couldn'
p156
I322
sS'route'
p157
I351
sS'running'
p158
I343
sS'keep'
p159
I256
sS'thing'
p160
I379
sS'funky'
p161
I270
sS'place'
p162
I120
sS'south'
p163
I182
sS'first'
p164
I378
sS'already'
p165
I269
sS'rachel'
p166
I320
sS'one'
p167
I74
sS'done'
p168
I4
sS'little'
p169
I273
sS'lister'
p170
I366
sS'x9cwhat'
p171
I118
sS'eyes'
p172
I43
sS'way'
p173
I253
sS'that'
p174
I122
sS'apologise'
p175
I49
sS'forward'
p176
I22
sS'butt'
p177
I418
sS'stairs'
p178
I198
sS'than'
p179
I285
sS'photograph'
p180
I258
sS'b'
p181
I372
sS'unfortunately'
p182
I355
sS'gotten'
p183
I325
sS'gotta'
p184
I293
sS'shower'
p185
I393
sS'iron'
p186
I374
sS'maybe'
p187
I206
sS'and'
p188
I19
sS'swerve'
p189
I252
sS'alley'
p190
I219
sS'tonight'
p191
I172
sS'say'
p192
I218
sS'slam'
p193
I250
sS'have'
p194
I104
sS'need'
p195
I177
sS'turn'
p196
I144
sS'screw'
p197
I254
sS'nights'
p198
I128
sS'thorough'
p199
I392
sS'take'
p200
I87
sS'bus'
p201
I154
sS'towards'
p202
I389
sS'centre'
p203
I373
sS'who'
p204
I173
sS'mouth'
p205
I95
sS'nothing'
p206
I288
sS'coin'
p207
I280
sS'why'
p208
I262
sS'don'
p209
I135
sS'failure'
p210
I226
sS'mobile'
p211
I57
sS'alarm'
p212
I16
sS'm'
p213
I300
sS'drive'
p214
I191
sS'axe'
p215
I199
sS'painting'
p216
I261
sS'photograghs'
p217
I197
sS'saying'
p218
I416
sS'shot'
p219
I203
sS'fifty'
p220
I223
sS'bedroom'
p221
I113
sS'carefully'
p222
I107
sS'fine'
p223
I208
sS'find'
p224
I301
sS'ground'
p225
I71
sS'brushin'
p226
I268
sS'explain'
p227
I157
sS'failed'
p228
I336
sS'going'
p229
I133
sS'employee'
p230
I149
sS'do'
p231
I119
sS'his'
p232
I36
sS'hit'
p233
I150
sS'get'
p234
I114
sS'stop'
p235
I290
sS'wordy'
p236
I296
sS'him'
p237
I64
sS'reveal'
p238
I237
sS'catcher'
p239
I232
sS'grab'
p240
I317
sS'poisoned'
p241
I146
sS'deathspotting'
p242
I38
sS'see'
p243
I82
sS'are'
p244
I364
sS'best'
p245
I165
sS'closet'
p246
I259
sS'away'
p247
I215
sS'outside'
p248
I62
sS'finger'
p249
I362
sS'disgruntled'
p250
I148
sS'explosive'
p251
I409
sS'ability'
p252
I166
sS'attention'
p253
I278
sS'outfit'
p254
I375
sS'penchant'
p255
I142
sS'kitchen'
p256
I279
sS'restaurant'
p257
I230
sS'tour'
p258
I153
sS'co'
p259
I211
sS'path'
p260
I359
sS'table'
p261
I53
sS'blonde'
p262
I23
sS'quit'
p263
I384
sS'west'
p264
I180
sS'three'
p265
I108
sS'been'
p266
I7
sS'gaze'
p267
I344
sS'erm'
p268
I213
sS'life'
p269
I303
sS'else'
p270
I83
sS'catch'
p271
I327
sS'has'
p272
I67
sS'look'
p273
I12
sS'straight'
p274
I334
sS'as'
p275
I28
sS'air'
p276
I188
sS'will'
p277
I332
sS'near'
p278
I340
sS'situation'
p279
I158
sS'cab'
p280
I73
sS'seven'
p281
I394
sS'is'
p282
I84
sS'it'
p283
I76
sS'in'
p284
I94
sS'rid'
p285
I167
sS'if'
p286
I1
sS'different'
p287
I10
sS'pay'
p288
I311
sS's'
p289
I152
sS'x80'
p290
I117
sS'drink'
p291
I185
sS'driver'
p292
I328
sS'moment'
p293
I337
sS'moving'
p294
I21
sS'off'
p295
I354
sS'i'
p296
I130
sS'no'
p297
I90
sS'the'
p298
I15
sS'sinner'
p299
I370
sS'just'
p300
I97
sS'being'
p301
I286
sS'rest'
p302
I112
sS'touch'
p303
I274
sS'yes'
p304
I297
sS'yet'
p305
I391
sS'cut'
p306
I352
sS'workers'
p307
I212
sS'had'
p308
I3
sS'killed'
p309
I326
sS'easy'
p310
I305
sS'hurry'
p311
I100
sS'east'
p312
I179
sS'starving'
p313
I287
sS'around'
p314
I249
sS'fate'
p315
I11
sS'knock'
p316
I33
sS'read'
p317
I155
sS'big'
p318
I417
sS'gonna'
p319
I289
sS'five'
p320
I376
sS'know'
p321
I137
sS'xe2'
p322
I116
sS'desk'
p323
I243
sS'using'
p324
I56
sS'd'
p325
I189
sS'insert'
p326
I401
sS'like'
p327
I121
sS'success'
p328
I224
sS'sofa'
p329
I159
sS'ignore'
p330
I14
sS'stagger'
p331
I388
sS'continue'
p332
I20
sS't'
p333
I102
sS'lose'
p334
I92
sS'x9cis'
p335
I124
sS'because'
p336
I98
sS'old'
p337
I201
sS'crowd'
p338
I248
sS'people'
p339
I404
sS'some'
p340
I187
sS'back'
p341
I277
sS'phone'
p342
I58
sS'standing'
p343
I162
sS'mighty'
p344
I329
sS'home'
p345
I192
sS'sprint'
p346
I349
sS'for'
p347
I79
sS'leap'
p348
I240
sS'overrated'
p349
I396
sS'sarah'
p350
I242
sS'run'
p351
I227
sS'business'
p352
I413
sS'ufo'
p353
I231
sS'by'
p354
I147
sS'on'
p355
I85
sS'about'
p356
I47
sS'oh'
p357
I294
sS'of'
p358
I17
sS'dollars'
p359
I81
sS'shield'
p360
I29
sS'stand'
p361
I402
sS'classics'
p362
I140
sS'framed'
p363
I196
sS'down'
p364
I51
sS'brunette'
p365
I24
sS'stumble'
p366
I387
sS'brakes'
p367
I251
sS'her'
p368
I46
sS'there'
p369
I331
sS'fast'
p370
I228
sS'stuck'
p371
I406
sS'lot'
p372
I170
sS'was'
p373
I313
sS'buy'
p374
I78
sS'north'
p375
I181
sS'offer'
p376
I86
sS'poster'
p377
I233
sS'but'
p378
I306
sS'cloth'
p379
I348
sS'gain'
p380
I225
sS'with'
p381
I54
sS'eat'
p382
I106
sS'he'
p383
I66
sS'throw'
p384
I377
sS'up'
p385
I13
sS'minutes'
p386
I96
sS'gone'
p387
I169
sS'deer'
p388
I255
sS'pie'
p389
I368
sS'doesn'
p390
I101
sS'an'
p391
I371
sS'examine'
p392
I110
sS'right'
p393
I207
sS'at'
p394
I52
sS'again'
p395
I109
sS'floor'
p396
I380
sS'nah'
p397
I40
sS'when'
p398
I175
sS'interested'
p399
I411
sS'you'
p400
I2
sS'out'
p401
I115
sS'brisk'
p402
I390
sS'teeth'
p403
I266
sS'dismantle'
p404
I164
sS'stay'
p405
I276
sS'loading'
p406
I357
sS'chance'
p407
I68
sS'tackle'
p408
I70
sS'deathspot'
p409
I263
sS'applause'
p410
I360
sS'bestowed'
p411
I8
sS'age'
p412
I202
sS'jacket'
p413
I319
sS'time'
p414
I91
sS'fresh'
p415
I271
sS'yell'
p416
I330
sS'starting'
p417
I59
sS'hello'
p418
I214
sS'rinse'
p419
I399
s.