(dp1
S'all'
p2
I94
sS'forget'
p3
I53
sS'move'
p4
I22
sS'focus'
p5
I26
sS'yellow'
p6
I31
sS'kill'
p7
I8
sS'questions'
p8
I152
sS'shake'
p9
I108
sS'go'
p10
I30
sS'fear'
p11
I81
sS'still'
p12
I57
sS'request'
p13
I112
sS'believe'
p14
I85
sS'streetlights'
p15
I35
sS'thinking'
p16
I51
sS'trying'
p17
I6
sS'help'
p18
I120
sS'send'
p19
I159
sS'wipe'
p20
I66
sS'late'
p21
I169
sS'to'
p22
I7
sS'window'
p23
I116
sS'orange'
p24
I34
sS'smile'
p25
I127
sS'blinds'
p26
I37
sS'save'
p27
I3
sS'do'
p28
I60
sS'his'
p29
I124
sS'bear'
p30
I139
sS'invitation'
p31
I144
sS'know'
p32
I58
sS'words'
p33
I125
sS'not'
p34
I14
sS'trouble'
p35
I97
sS'him'
p36
I70
sS'grin'
p37
I137
sS'resolve'
p38
I161
sS'confront'
p39
I149
sS'didn'
p40
I100
sS'remove'
p41
I145
sS'ignore'
p42
I50
sS'lucretia'
p43
I82
sS'she'
p44
I0
sS'night'
p45
I170
sS'through'
p46
I36
sS'grab'
p47
I61
sS'buddylist'
p48
I148
sS'cookies'
p49
I140
sS'laugh'
p50
I162
sS'back'
p51
I40
sS'mirror'
p52
I107
sS'okay'
p53
I90
sS'yes'
p54
I153
sS'out'
p55
I106
sS'try'
p56
I104
sS'what'
p57
I59
sS'for'
p58
I64
sS'away'
p59
I118
sS'repress'
p60
I102
sS'everything'
p61
I87
sS'continue'
p62
I72
sS'reply'
p63
I54
sS'red'
p64
I93
sS't'
I2
sS'be'
p65
I89
sS'never'
p66
I129
sS'punch'
p67
I135
sS'water'
p68
I165
sS'met'
p69
I76
sS'let'
p70
I29
sS'ask'
p71
I150
sS'by'
p72
I19
sS'wait'
p73
I157
sS'on'
p74
I23
sS'about'
p75
I52
sS'fault'
p76
I16
sS'keep'
p77
I42
sS's'
I5
sS'swing'
p78
I133
sS'passing'
p79
I33
sS'think'
p80
I84
sS'and'
p81
I138
sS'quietly'
p82
I167
sS'childhood'
p83
I141
sS'figure'
p84
I142
sS'down'
p85
I115
sS'brush'
p86
I117
sS'another'
p87
I24
sS'apologize'
p88
I71
sS'message'
p89
I48
sS'open'
p90
I155
sS'your'
p91
I147
sS'headlights'
p92
I32
sS'from'
p93
I146
sS'silent'
p94
I43
sS'her'
p95
I15
sS'fight'
p96
I101
sS'live'
p97
I12
sS'call'
p98
I131
sS'too'
p99
I168
sS'memory'
p100
I25
sS'tell'
p101
I38
sS'more'
p102
I151
sS'throws'
p103
I163
sS'deeper'
p104
I56
sS'that'
p105
I86
sS'club'
p106
I158
sS'else'
p107
I46
sS'lunge'
p108
I63
sS'glass'
p109
I164
sS'larry'
p110
I92
sS'don'
p111
I10
sS'hold'
p112
I73
sS'with'
p113
I160
sS'dialing'
p114
I126
sS'sleep'
p115
I103
sS'me'
p116
I4
sS'myself'
p117
I105
sS'look'
p118
I119
sS'this'
p119
I83
sS'work'
p120
I130
sS'up'
p121
I67
sS'bed'
p122
I122
sS'will'
p123
I88
sS'guilt'
p124
I110
sS'can'
p125
I1
sS'of'
p126
I91
sS'stopping'
p127
I18
sS'feeling'
p128
I109
sS'my'
p129
I78
sS'delete'
p130
I49
sS'remembering'
p131
I98
sS'sam'
p132
I20
sS'm'
I95
sS'sips'
p133
I166
sS'it'
p134
I13
sS'accept'
p135
I111
sS'cherie'
p136
I21
sS'something'
p137
I45
sS'in'
p138
I80
sS'anger'
p139
I28
sS'check'
p140
I47
sS'ponder'
p141
I123
sS'no'
p142
I132
sS'suggest'
p143
I17
sS'other'
p144
I156
sS'take'
p145
I62
sS'reject'
p146
I113
sS'you'
p147
I75
sS'roll'
p148
I114
sS'day'
p149
I74
sS'll'
p150
I128
sS'pain'
p151
I68
sS'pick'
p152
I143
sS'reach'
p153
I65
sS'hand'
p154
I154
sS'delve'
p155
I55
sS'why'
p156
I99
sS'a'
I134
sS'off'
p157
I41
sS'remember'
p158
I44
sS'i'
I9
sS'cover'
p159
I77
sS'face'
p160
I79
sS'adam'
p161
I39
sS'clean'
p162
I121
sS'deserve'
p163
I11
sS'push'
p164
I69
sS'the'
p165
I27
sS'at'
p166
I136
sS'having'
p167
I96
s.