(dp1
S'nmet'
p2
I1071
sS'horrible'
p3
I861
sS'all'
p4
I115
sS'confused'
p5
I875
sS'forget'
p6
I96
sS'prioritized'
p7
I1142
sS'daisies'
p8
I1173
sS'instincts'
p9
I1307
sS'doubts'
p10
I849
sS'focus'
p11
I61
sS'yellow'
p12
I475
sS'although'
p13
I1273
sS'nwe'
p14
I98
sS'sleep'
p15
I1154
sS'nguess'
p16
I636
sS'freakin'
p17
I250
sS'n30'
p18
I333
sS'follow'
p19
I757
sS'psycho'
p20
I227
sS'faster'
p21
I458
sS'saved'
p22
I12
sS'children'
p23
I626
sS'hmmm'
p24
I134
sS'glimpse'
p25
I416
sS'compose'
p26
I1014
sS'nsunday'
p27
I527
sS'doe'
p28
I1053
sS'flash'
p29
I474
sS'father'
p30
I651
sS'nadded'
p31
I836
sS'flinch'
p32
I913
sS'to'
p33
I3
sS'finally'
p34
I372
sS'unpleasant'
p35
I737
sS'chewing'
p36
I166
sS'under'
p37
I41
sS'smile'
p38
I405
sS'sorry'
p39
I103
sS'welcome'
p40
I1080
sS'sent'
p41
I291
sS'sinking'
p42
I1056
sS'me'
p43
I28
sS'ngetting'
p44
I253
sS'sitting'
p45
I935
sS'far'
p46
I472
sS'memories'
p47
I744
sS'nhell'
p48
I846
sS'choice'
p49
I404
sS'every'
p50
I526
sS'twice'
p51
I1278
sS'telling'
p52
I274
sS'join'
p53
I1106
sS'trouble'
p54
I709
sS'short'
p55
I1144
sS'multiple'
p56
I772
sS'wipe'
p57
I898
sS'strand'
p58
I322
sS'psycologist'
p59
I623
sS'entire'
p60
I364
sS'school'
p61
I937
sS'heaven'
p62
I473
sS'doesn'
p63
I70
sS'level'
p64
I643
sS'did'
p65
I94
sS'turns'
p66
I450
sS'dizzy'
p67
I1211
sS'wednesday'
p68
I1051
sS'ryan'
p69
I719
sS'grandfather'
p70
I583
sS'try'
p71
I880
sS'race'
p72
I500
sS'red'
p73
I145
sS'nfor'
p74
I380
sS'small'
p75
I356
sS'throbbing'
p76
I341
sS'blur'
p77
I1218
sS'bleed'
p78
I920
sS'cookies'
p79
I581
sS'glassy'
p80
I827
sS'says'
p81
I7
sS'invades'
p82
I1291
sS'tired'
p83
I261
sS'bleeding'
p84
I763
sS'sigh'
p85
I727
sS'hating'
p86
I512
sS'grabs'
p87
I1031
sS'jump'
p88
I996
sS'battle'
p89
I156
sS'second'
p90
I46
sS'louder'
p91
I190
sS'dried'
p92
I611
sS'go'
p93
I221
sS'nthe'
p94
I259
sS'bloodshot'
p95
I865
sS'bake'
p96
I580
sS'distance'
p97
I1227
sS'click'
p98
I1180
sS'nbe'
p99
I577
sS'thighs'
p100
I1199
sS'even'
p101
I173
sS'what'
p102
I87
sS'ahead'
p103
I1226
sS'adds'
p104
I243
sS'darkness'
p105
I1081
sS'giving'
p106
I246
sS'hate'
p107
I813
sS'nand'
p108
I933
sS'remembered'
p109
I811
sS'waiting'
p110
I705
sS'tears'
p111
I612
sS'nseems'
p112
I349
sS'nrotten'
p113
I663
sS'upset'
p114
I900
sS'new'
p115
I1015
sS'seemed'
p116
I605
sS'ever'
p117
I117
sS'naway'
p118
I347
sS'body'
p119
I365
sS'hero'
p120
I515
sS'mad'
p121
I730
sS'nend'
p122
I1083
sS'never'
p123
I219
sS'punch'
p124
I395
sS'here'
p125
I1239
sS'nsuddenly'
p126
I267
sS'water'
p127
I326
sS'met'
p128
I541
sS'shouldn'
p129
I232
sS'let'
p130
I220
sS'sink'
p131
I831
sS'others'
p132
I384
sS'nunkempt'
p133
I814
sS'plays'
p134
I1265
sS'kleenex'
p135
I896
sS'change'
p136
I787
sS'wait'
p137
I1060
sS'box'
p138
I897
sS'sending'
p139
I531
sS'chipped'
p140
I591
sS'kids'
p141
I917
sS'nsweat'
p142
I432
sS'swing'
p143
I926
sS'broken'
p144
I867
sS'shoes'
p145
I1182
sS'shift'
p146
I656
sS'leaves'
p147
I202
sS'leaver'
p148
I1254
sS'guilty'
p149
I111
sS'leaving'
p150
I646
sS'nlucretia'
p151
I477
sS'laughing'
p152
I1289
sS'misery'
p153
I457
sS'had'
p154
I650
sS'nblue'
p155
I975
sS'makes'
p156
I258
sS'pillow'
p157
I268
sS'fell'
p158
I967
sS'enternity'
p159
I780
sS'reds'
p160
I889
sS'stained'
p161
I662
sS'love'
p162
I422
sS'santa'
p163
I563
sS'figure'
p164
I1011
sS'bowled'
p165
I768
sS'suddenly'
p166
I205
sS'search'
p167
I1240
sS'objectively'
p168
I408
sS'brought'
p169
I1128
sS'throat'
p170
I819
sS'verge'
p171
I723
sS'pulls'
p172
I352
sS'should'
p173
I627
sS'parking'
p174
I938
sS'ringing'
p175
I1055
sS'yourself'
p176
I223
sS'nmeans'
p177
I1158
sS'cheating'
p178
I903
sS'from'
p179
I21
sS'takes'
p180
I175
sS'would'
p181
I576
sS'lose'
p182
I879
sS'distinct'
p183
I992
sS'angry'
p184
I887
sS'faint'
p185
I598
sS'dude'
p186
I1004
sS'arms'
p187
I388
sS'tightly'
p188
I360
sS'by'
p189
I668
sS'candies'
p190
I557
sS'live'
p191
I1109
sS'nmessage'
p192
I1298
sS'music'
p193
I451
sS'memory'
p194
I614
sS'taken'
p195
I916
sS'pupils'
p196
I1206
sS'means'
p197
I1079
sS'deserve'
p198
I1108
sS'bowl'
p199
I1133
sS'until'
p200
I75
sS'today'
p201
I292
sS'more'
p202
I136
sS'breathe'
p203
I4
sS'nguilt'
p204
I788
sS'door'
p205
I304
sS'knows'
p206
I240
sS'lungs'
p207
I330
sS'relax'
p208
I362
sS'started'
p209
I883
sS'becomes'
p210
I808
sS'reeked'
p211
I665
sS'claus'
p212
I564
sS'nbackwards'
p213
I1284
sS'drips'
p214
I433
sS'phone'
p215
I97
sS'dood'
p216
I1098
sS'drown'
p217
I1179
sS'everywhere'
p218
I185
sS'accept'
p219
I837
sS'impulse'
p220
I1188
sS'pierces'
p221
I329
sS'hold'
p222
I618
sS'glad'
p223
I1111
sS'must'
p224
I14
sS'shoot'
p225
I135
sS'involve'
p226
I1131
sS'none'
p227
I237
sS'crosses'
p228
I1185
sS'locked'
p229
I466
sS'room'
p230
I407
sS'hour'
p231
I654
sS'cluster'
p232
I429
sS'this'
p233
I284
sS'car'
p234
I444
sS'ride'
p235
I855
sS'work'
p236
I233
sS'sucks'
p237
I717
sS'alone'
p238
I1127
sS'guards'
p239
I816
sS'slice'
p240
I1122
sS'anywhere'
p241
I398
sS'can'
p242
I138
sS'starts'
p243
I149
sS'following'
p244
I1061
sS'meet'
p245
I399
sS'my'
p246
I5
sS'pick'
p247
I958
sS'unknown'
p248
I1164
sS'heart'
p249
I504
sS'crazy'
p250
I469
sS'everyone'
p251
I1281
sS'pushes'
p252
I403
sS'give'
p253
I27
sS'lock'
p254
I987
sS'nmemories'
p255
I281
sS'nwaiting'
p256
I1299
sS'laughs'
p257
I397
sS'fuck'
p258
I850
sS'bus'
p259
I784
sS'nfocus'
p260
I1069
sS'heard'
p261
I700
sS'narrows'
p262
I494
sS'something'
p263
I63
sS'want'
p264
I15
sS'sense'
p265
I885
sS'cherie'
p266
I19
sS'phrase'
p267
I537
sS'keep'
p268
I616
sS'dress'
p269
I805
sS'occur'
p270
I71
sS'lights'
p271
I1178
sS'hesitate'
p272
I441
sS'sneers'
p273
I497
sS'end'
p274
I393
sS'bonbons'
p275
I552
sS'hinders'
p276
I324
sS'lame'
p277
I199
sS'protect'
p278
I918
sS'get'
p279
I130
sS'moves'
p280
I1201
sS'carries'
p281
I1090
sS'nlooked'
p282
I951
sS'how'
p283
I270
sS'amazing'
p284
I354
sS'swear'
p285
I1258
sS'silent'
p286
I833
sS'nwas'
p287
I653
sS'hop'
p288
I443
sS'reject'
p289
I262
sS'instinctively'
p290
I32
sS'beach'
p291
I127
sS'pizza'
p292
I522
sS'nlately'
p293
I118
sS'badly'
p294
I1084
sS'stood'
p295
I999
sS'okay'
p296
I578
sS'tried'
p297
I212
sS'rihanna'
p298
I1189
sS'may'
p299
I749
sS'cranky'
p300
I760
sS'insecure'
p301
I381
sS'after'
p302
I338
sS'apart'
p303
I1162
sS'different'
p304
I1215
sS'3'
I1018
sS'wrinkled'
p305
I1237
sS'tries'
p306
I132
sS'abuse'
p307
I644
sS'ncomputer'
p308
I706
sS'blood'
p309
I172
sS'noise'
p310
I1305
sS'waves'
p311
I24
sS'such'
p312
I355
sS'birthday'
p313
I1036
sS'snap'
p314
I872
sS'pressed'
p315
I1297
sS'grow'
p316
I150
sS'man'
p317
I228
sS'a'
I29
sS'burns'
p318
I820
sS'drop'
p319
I854
sS'remember'
p320
I213
sS'hypnotized'
p321
I1186
sS'ndifferent'
p322
I182
sS'bullies'
p323
I919
sS'light'
p324
I406
sS'dilate'
p325
I1207
sS'feels'
p326
I779
sS'think'
p327
I492
sS'their'
p328
I1157
sS'bloody'
p329
I1002
sS'so'
p330
I169
sS'worst'
p331
I822
sS'nstill'
p332
I1308
sS'nhonestly'
p333
I374
sS'pulled'
p334
I40
sS'order'
p335
I10
sS'talk'
p336
I286
sS'least'
p337
I1089
sS'help'
p338
I385
sS'conversation'
p339
I940
sS'deck'
p340
I23
sS'josephine'
p341
I1301
sS'wound'
p342
I766
sS'over'
p343
I157
sS'move'
p344
I382
sS'soon'
p345
I950
sS'attitude'
p346
I941
sS'through'
p347
I560
sS'looks'
p348
I899
sS'keyboard'
p349
I159
sS'hell'
p350
I751
sS'smiling'
p351
I931
sS'still'
p352
I85
sS'gramps'
p353
I746
sS'its'
p354
I1099
sS'before'
p355
I123
sS'perfect'
p356
I1205
sS'style'
p357
I288
sS'nchecking'
p358
I1219
sS'njohn'
p359
I1073
sS'thank'
p360
I1248
sS'somewhere'
p361
I956
sS'c'
I1150
sS'll'
p362
I438
sS'dim'
p363
I1231
sS'sunday'
p364
I1100
sS'actually'
p365
I762
sS'better'
p366
I379
sS'window'
p367
I997
sS'suspicion'
p368
I791
sS'ruining'
p369
I506
sS'communication'
p370
I1136
sS'orange'
p371
I600
sS'ndreaded'
p372
I586
sS'weeks'
p373
I715
sS'bye'
p374
I1078
sS'might'
p375
I436
sS'happened'
p376
I761
sS'ngets'
p377
I189
sS'then'
p378
I572
sS'them'
p379
I247
sS'someone'
p380
I373
sS'crash'
p381
I264
sS'fourth'
p382
I1117
sS'yo'
p383
I92
sS'nwater'
p384
I369
sS'food'
p385
I659
sS'nof'
p386
I841
sS'oranges'
p387
I664
sS'speechless'
p388
I1174
sS'nmother'
p389
I545
sS'happen'
p390
I1052
sS'ntouchy'
p391
I747
sS'hurting'
p392
I949
sS'bothering'
p393
I759
sS'they'
p394
I235
sS'hands'
p395
I357
sS'not'
p396
I43
sS'ace'
p397
I1105
sS'nhelp'
p398
I932
sS'now'
p399
I101
sS'day'
p400
I122
sS'nor'
p401
I1257
sS'shadows'
p402
I1001
sS'smiles'
p403
I1026
sS'grumbling'
p404
I86
sS'name'
p405
I1212
sS'always'
p406
I277
sS'times'
p407
I681
sS'didn'
p408
I418
sS'yellows'
p409
I482
sS'betta'
p410
I196
sS'nlast'
p411
I934
sS'yearns'
p412
I1029
sS'nprefers'
p413
I1134
sS'good'
p414
I476
sS'ya'
p415
I726
sS'bowling'
p416
I517
sS'break'
p417
I869
sS'repeating'
p418
I222
sS'nsomething'
p419
I348
sS'nshutting'
p420
I691
sS'upward'
p421
I35
sS'heavy'
p422
I1230
sS'breakdown'
p423
I725
sS'reminded'
p424
I969
sS'nhim'
p425
I1065
sS'nknuckles'
p426
I147
sS'doing'
p427
I505
sS'house'
p428
I80
sS'fish'
p429
I817
sS'hard'
p430
I170
sS'winked'
p431
I573
sS'yeah'
p432
I488
sS'freak'
p433
I1253
sS'each'
p434
I924
sS'tonite'
p435
I1104
sS'eyebrow'
p436
I1260
sS'nover'
p437
I1256
sS'blocks'
p438
I585
sS'girl'
p439
I396
sS'calling'
p440
I829
sS'ring'
p441
I954
sS'wallpaper'
p442
I596
sS'out'
p443
I49
sS'living'
p444
I89
sS'whining'
p445
I112
sS'missed'
p446
I528
sS'space'
p447
I1192
sS'nnew'
p448
I1013
sS'god'
p449
I83
sS'desert'
p450
I1222
sS'bad'
p451
I1126
sS'nryan'
p452
I1034
sS'looking'
p453
I609
sS're'
p454
I99
sS'seriously'
p455
I771
sS'ncherie'
p456
I275
sS'nsmile'
p457
I688
sS'suggesting'
p458
I1238
sS'got'
p459
I799
sS'cause'
p460
I454
sS'occurs'
p461
I810
sS'highway'
p462
I100
sS'nsam'
p463
I1119
sS'shut'
p464
I306
sS'attended'
p465
I524
sS'pathetic'
p466
I828
sS'hang'
p467
I351
sS'nalways'
p468
I368
sS'guess'
p469
I756
sS'free'
p470
I447
sS'screaming'
p471
I1268
sS'quick'
p472
I695
sS'reason'
p473
I53
sS'njust'
p474
I620
sS'nto'
p475
I230
sS'ntangible'
p476
I686
sS'ask'
p477
I72
sS'wanted'
p478
I615
sS'guy'
p479
I707
sS'shot'
p480
I1115
sS'care'
p481
I298
sS'dammit'
p482
I158
sS'couldn'
p483
I208
sS'afternoon'
p484
I657
sS'nwith'
p485
I802
sS'best'
p486
I1066
sS'dunno'
p487
I104
sS'could'
p488
I76
sS'scars'
p489
I146
sS'wrong'
p490
I547
sS'honest'
p491
I229
sS'thing'
p492
I302
sS'heck'
p493
I241
sS'place'
p494
I1130
sS'isn'
p495
I496
sS'invitation'
p496
I263
sS'nthing'
p497
I423
sS'won'
p498
I1038
sS'messaged'
p499
I1097
sS'nthey'
p500
I1139
sS'throws'
p501
I483
sS'fuckin'
p502
I852
sS'first'
p503
I66
sS'nhe'
p504
I218
sS'insane'
p505
I367
sS'already'
p506
I1010
sS'dont'
p507
I1255
sS'yank'
p508
I1283
sS'feel'
p509
I110
sS'coming'
p510
I801
sS'number'
p511
I1244
sS'reaches'
p512
I1040
sS'one'
p513
I13
sS'done'
p514
I812
sS'bitch'
p515
I107
sS'another'
p516
I800
sS'wasn'
p517
I425
sS'carry'
p518
I1277
sS'reached'
p519
I430
sS'message'
p520
I273
sS'fight'
p521
I677
sS'scent'
p522
I968
sS'tomorrow'
p523
I698
sS'mix'
p524
I890
sS'moan'
p525
I1233
sS'little'
p526
I106
sS'heads'
p527
I248
sS'personalities'
p528
I183
sS'paint'
p529
I592
sS'leading'
p530
I593
sS'top'
p531
I858
sS'vibrate'
p532
I269
sS'anyone'
p533
I986
sS'kinder'
p534
I565
sS'2'
I1165
sS'ton'
p535
I1091
sS'too'
p536
I468
sS'white'
p537
I976
sS'john'
p538
I45
sS'bday'
p539
I1103
sS'speaking'
p540
I409
sS'listen'
p541
I1252
sS'groggily'
p542
I272
sS'eyes'
p543
I33
sS'hug'
p544
I376
sS'stomach'
p545
I1058
sS'lot'
p546
I939
sS'that'
p547
I8
sS'pore'
p548
I1292
sS'nsometimes'
p549
I491
sS'brushes'
p550
I141
sS'minute'
p551
I1168
sS'took'
p552
I621
sS'ncall'
p553
I692
sS'part'
p554
I619
sS'grandpa'
p555
I513
sS'nup'
p556
I1225
sS'deeply'
p557
I965
sS'july'
p558
I1118
sS'believe'
p559
I637
sS'herself'
p560
I210
sS'than'
p561
I295
sS'loved'
p562
I554
sS'kind'
p563
I1125
sS'grew'
p564
I1229
sS'widened'
p565
I570
sS'lying'
p566
I720
sS'coward'
p567
I300
sS'goodnight'
p568
I1249
sS'bed'
p569
I684
sS'project'
p570
I216
sS'matter'
p571
I411
sS'nseeking'
p572
I318
sS'computer'
p573
I257
sS'guilt'
p574
I511
sS'supposed'
p575
I125
sS'were'
p576
I124
sS'noff'
p577
I165
sS'feeling'
p578
I1057
sS'erase'
p579
I1304
sS'driveway'
p580
I1042
sS'and'
p581
I59
sS'concrete'
p582
I1048
sS'sam'
p583
I420
sS'rattle'
p584
I993
sS'shimmering'
p585
I1228
sS'trusting'
p586
I839
sS'confessed'
p587
I421
sS'mind'
p588
I56
sS'gently'
p589
I140
sS'alley'
p590
I1072
sS'club'
p591
I1246
sS'tonight'
p592
I713
sS'talking'
p593
I647
sS'say'
p594
I442
sS'slam'
p595
I696
sS'buried'
p596
I508
sS'have'
p597
I153
sS'anger'
p598
I148
sS'ntelling'
p599
I214
sS'seem'
p600
I682
sS'turn'
p601
I34
sS'saw'
p602
I863
sS'any'
p603
I311
sS'catholic'
p604
I1113
sS'softly'
p605
I1266
sS'sprinkles'
p606
I1037
sS'triggered'
p607
I742
sS'nexhilirated'
p608
I462
sS'nshe'
p609
I131
sS'nanother'
p610
I778
sS'naccident'
p611
I1294
sS'mechanism'
p612
I315
sS'note'
p613
I1241
sS'instance'
p614
I121
sS'chest'
p615
I687
sS'lip'
p616
I168
sS'take'
p617
I582
sS'forces'
p618
I995
sS'laughed'
p619
I571
sS'nall'
p620
I888
sS'seductive'
p621
I1204
sS'whiner'
p622
I853
sS'soap'
p623
I601
sS'circles'
p624
I58
sS'blue'
p625
I610
sS'begin'
p626
I1210
sS'towards'
p627
I353
sS'pain'
p628
I328
sS'nice2'
p629
I1101
sS'though'
p630
I785
sS'who'
p631
I239
sS'reach'
p632
I133
sS'nblame'
p633
I736
sS'falls'
p634
I877
sS'most'
p635
I740
sS'virus'
p636
I254
sS'letter'
p637
I162
sS'nothing'
p638
I671
sS'laughter'
p639
I984
sS'nneed'
p640
I383
sS'why'
p641
I129
sS'christ'
p642
I1288
sS'known'
p643
I278
sS'overwhelming'
p644
I1068
sS'opposites'
p645
I1141
sS'neuro'
p646
I226
sS'especially'
p647
I847
sS'surprising'
p648
I1062
sS'fills'
p649
I792
sS'sometimes'
p650
I180
sS'm'
I38
sS'drive'
p651
I1175
sS'face'
p652
I486
sS'looked'
p653
I562
sS'wore'
p654
I1121
sS'hi'
p655
I711
sS'wind'
p656
I1224
sS'sun'
p657
I948
sS'uncle'
p658
I1070
sS'scream'
p659
I793
sS'came'
p660
I543
sS'nnone'
p661
I884
sS'shop'
p662
I973
sS'giggles'
p663
I449
sS'walking'
p664
I970
sS'ntogether'
p665
I830
sS'nstories'
p666
I639
sS'gold'
p667
I1021
sS'summer'
p668
I1172
sS'text'
p669
I439
sS'fond'
p670
I743
sS'anyway'
p671
I821
sS'nthings'
p672
I722
sS'fingers'
p673
I1143
sS'pops'
p674
I164
sS'bring'
p675
I660
sS'nthen'
p676
I555
sS'cher'
p677
I754
sS'climb'
p678
I1152
sS'nalphaq143'
p679
I1095
sS'fine'
p680
I758
sS'nwhat'
p681
I871
sS'impact'
p682
I994
sS'pause'
p683
I139
sS'naturedly'
p684
I915
sS'nervous'
p685
I1120
sS'ngo'
p686
I126
sS'jolt'
p687
I980
sS'haven'
p688
I460
sS'buttons'
p689
I280
sS'brighter'
p690
I481
sS'only'
p691
I455
sS'going'
p692
I57
sS'nbetter'
p693
I617
sS'pretty'
p694
I848
sS'nkeys'
p695
I499
sS'passing'
p696
I972
sS'dancing'
p697
I1181
sS'local'
p698
I514
sS'nschizophrenic'
p699
I1177
sS'hope'
p700
I1270
sS'personality'
p701
I773
sS'do'
p702
I109
sS'his'
p703
I400
sS'nyet'
p704
I912
sS'closed'
p705
I1153
sS'forgetful'
p706
I1039
sS'psychiatrist'
p707
I6
sS'air'
p708
I1166
sS'between'
p709
I655
sS'stop'
p710
I105
sS'blinking'
p711
I1242
sS'coast'
p712
I815
sS'shutting'
p713
I313
sS'ones'
p714
I1032
sS'pretending'
p715
I874
sS'ithink'
p716
I1149
sS'feely'
p717
I748
sS'during'
p718
I428
sS'him'
p719
I701
sS'sweet'
p720
I1194
sS'gray'
p721
I290
sS'spots'
p722
I480
sS'bar'
p723
I1261
sS'sounds'
p724
I961
sS'covering'
p725
I485
sS'nsharp'
p726
I327
sS'snorted'
p727
I1063
sS'cry'
p728
I120
sS'mon'
p729
I1151
sS'morning'
p730
I84
sS'cool'
p731
I1223
sS'jokes'
p732
I1110
sS'nevents'
p733
I561
sS'stupid'
p734
I251
sS'she'
p735
I114
sS'ntowards'
p736
I410
sS'distant'
p737
I886
sS'grab'
p738
I65
sS'told'
p739
I553
sS'where'
p740
I73
sS'gotta'
p741
I922
sS'vision'
p742
I325
sS'view'
p743
I336
sS'respond'
p744
I31
sS'nthere'
p745
I184
sS'honesty'
p746
I991
sS'fair'
p747
I640
sS'cuz'
p748
I851
sS'notice'
p749
I704
sS'nlord'
p750
I453
sS'seat'
p751
I503
sS'pushed'
p752
I998
sS'ngod'
p753
I1137
sS'see'
p754
I79
sS'accused'
p755
I317
sS'nsize'
p756
I1279
sS'are'
p757
I16
sS'ignores'
p758
I225
sS'nincreasingly'
p759
I413
sS'fail'
p760
I882
sS'close'
p761
I377
sS'stalking'
p762
I1251
sS'hit'
p763
I985
sS'definitely'
p764
I988
sS'appear'
p765
I1290
sS'said'
p766
I568
sS'draws'
p767
I342
sS'luv'
p768
I1016
sS'away'
p769
I55
sS'please'
p770
I42
sS'idle'
p771
I1096
sS'enough'
p772
I708
sS'r'
I163
sS'finges'
p773
I143
sS'nwithout'
p774
I245
sS'routine'
p775
I652
sS'probably'
p776
I417
sS'nterror'
p777
I823
sS'whipped'
p778
I930
sS'knowing'
p779
I845
sS'we'
p780
I74
sS'stiffening'
p781
I283
sS'nlooking'
p782
I1271
sS'munching'
p783
I556
sS'confusion'
p784
I824
sS'screen'
p785
I595
sS'killing'
p786
I487
sS'kicking'
p787
I807
sS'incident'
p788
I1269
sS'chided'
p789
I838
sS'hurts'
p790
I857
sS'betrayed'
p791
I641
sS'come'
p792
I1234
sS'pissed'
p793
I260
sS'tug'
p794
I776
sS'league'
p795
I523
sS'hits'
p796
I160
sS'figured'
p797
I426
sS'last'
p798
I301
sS'fault'
p799
I690
sS'taking'
p800
I297
sS'barely'
p801
I501
sS'hours'
p802
I606
sS'quiet'
p803
I957
sS'against'
p804
I1049
sS'mana'
p805
I137
sS's'
I1
sS'became'
p806
I412
sS'streams'
p807
I370
sS'reluctantly'
p808
I1082
sS'beyond'
p809
I1045
sS'swallow'
p810
I366
sS'inlove'
p811
I1148
sS'asked'
p812
I546
sS'comes'
p813
I335
sS'otherwise'
p814
I790
sS'nannoyed'
p815
I1005
sS'childhood'
p816
I540
sS'awning'
p817
I977
sS'point'
p818
I1159
sS'color'
p819
I289
sS'sky'
p820
I350
sS'tuesday'
p821
I1020
sS'nthose'
p822
I603
sS'wonder'
p823
I1214
sS'engulfs'
p824
I1059
sS'whatever'
p825
I198
sS'walk'
p826
I667
sS'ncrying'
p827
I963
sS'joh'
p828
I894
sS'nmore'
p829
I479
sS'laugh'
p830
I478
sS'church'
p831
I525
sS'table'
p832
I911
sS'trust'
p833
I795
sS'appeared'
p834
I207
sS'platinum'
p835
I1046
sS'late'
p836
I862
sS'raise'
p837
I881
sS'asks'
p838
I1216
sS'capable'
p839
I296
sS'nhow'
p840
I471
sS'recognize'
p841
I989
sS'three'
p842
I91
sS'been'
p843
I465
sS'dug'
p844
I752
sS'alphaq143'
p845
I242
sS'submarine'
p846
I1264
sS'beer'
p847
I521
sS'much'
p848
I331
sS'slowly'
p849
I892
sS'reservations'
p850
I714
sS'ntwo'
p851
I834
sS'reformat'
p852
I256
sS'threw'
p853
I1093
sS'slips'
p854
I54
sS'life'
p855
I154
sS'lived'
p856
I584
sS'families'
p857
I1161
sS'champion'
p858
I518
sS'both'
p859
I803
sS'turned'
p860
I1094
sS'prison'
p861
I452
sS'great'
p862
I782
sS'mine'
p863
I1024
sS'hmm'
p864
I755
sS'coherent'
p865
I69
sS'understand'
p866
I128
sS'deep'
p867
I176
sS'child'
p868
I622
sS'catch'
p869
I415
sS'ncan'
p870
I358
sS'worked'
p871
I649
sS'hers'
p872
I952
sS'combintation'
p873
I1295
sS'those'
p874
I587
sS'chill'
p875
I191
sS'sound'
p876
I597
sS'myself'
p877
I282
sS'has'
p878
I498
sS'look'
p879
I193
sS'these'
p880
I181
sS'leave'
p881
I1025
sS'vanilla'
p882
I551
sS'harder'
p883
I414
sS'examine'
p884
I1006
sS'n'
I81
sS'will'
p885
I859
sS'ugly'
p886
I804
sS'while'
p887
I891
sS'suppose'
p888
I1114
sS'hates'
p889
I1138
sS'joke'
p890
I1123
sS'fun'
p891
I731
sS'situation'
p892
I1272
sS'voice'
p893
I960
sS'nsky'
p894
I1050
sS'amusing'
p895
I1274
sS'at'
p896
I574
sS'dad'
p897
I648
sS'force'
p898
I1245
sS've'
p899
I464
sS'wouldn'
p900
I1028
sS'almost'
p901
I203
sS'wherever'
p902
I955
sS'is'
p903
I119
sS'geezus'
p904
I1287
sS'it'
p905
I0
sS'sting'
p906
I310
sS'ducks'
p907
I394
sS'need'
p908
I60
sS'pressing'
p909
I339
sS'frantic'
p910
I809
sS'ndo'
p911
I1132
sS'in'
p912
I9
sS'nwatching'
p913
I1275
sS'rid'
p914
I798
sS'nknock'
p915
I979
sS'worry'
p916
I566
sS'if'
p917
I211
sS'nmanagement'
p918
I942
sS'damaged'
p919
I1007
sS'polar'
p920
I1140
sS'nhonest'
p921
I536
sS'shirt'
p922
I777
sS'anymore'
p923
I285
sS'doctor'
p924
I767
sS'perhaps'
p925
I431
sS'things'
p926
I735
sS'make'
p927
I309
sS'nbaggage'
p928
I1092
sS'nlikely'
p929
I741
sS'same'
p930
I608
sS'check'
p931
I1282
sS'nshift'
p932
I658
sS'html'
p933
I287
sS'buddylist'
p934
I842
sS'party'
p935
I1124
sS'struggling'
p936
I1276
sS'difficult'
p937
I2
sS'wheel'
p938
I446
sS'meets'
p939
I1023
sS'outside'
p940
I1170
sS'used'
p941
I530
sS'nin'
p942
I1129
sS'gasped'
p943
I1213
sS'closest'
p944
I895
sS'again'
p945
I224
sS'keys'
p946
I1296
sS'swell'
p947
I151
sS'submerged'
p948
I878
sS'upon'
p949
I144
sS'hand'
p950
I47
sS'nbitch'
p951
I873
sS'moment'
p952
I575
sS'uses'
p953
I602
sS'two'
p954
I866
sS'dark'
p955
I1221
sS'nis'
p956
I316
sS'flips'
p957
I1200
sS'weird'
p958
I721
sS'nit'
p959
I346
sS'kid'
p960
I670
sS'mute'
p961
I1191
sS'ndad'
p962
I645
sS'lower'
p963
I167
sS'off'
p964
I187
sS'reflection'
p965
I826
sS'glitter'
p966
I1197
sS'i'
I37
sS'miss'
p967
I1009
sS'well'
p968
I1027
sS'fighting'
p969
I1155
sS'non'
p970
I642
sS'thought'
p971
I67
sS'person'
p972
I244
sS'nthat'
p973
I419
sS'mother'
p974
I579
sS'grins'
p975
I914
sS'genie'
p976
I569
sS'the'
p977
I22
sS'whisper'
p978
I1195
sS'left'
p979
I155
sS'fades'
p980
I893
sS'nadam'
p981
I276
sS'kiss'
p982
I1041
sS'just'
p983
I378
sS'less'
p984
I312
sS'being'
p985
I39
sS'nan'
p986
I1187
sS'nfirst'
p987
I1167
sS'ndidn'
p988
I535
sS'rest'
p989
I750
sS'front'
p990
I661
sS'pissing'
p991
I186
sS'kill'
p992
I794
sS'circling'
p993
I1309
sS'behind'
p994
I1193
sS'touch'
p995
I445
sS'npassenger'
p996
I502
sS'yet'
p997
I44
sS'nhurtful'
p998
I1076
sS'halfway'
p999
I1000
sS'nunder'
p1000
I271
sS'painful'
p1001
I680
sS'nnever'
p1002
I1030
sS'ma'
p1003
I1285
sS'hint'
p1004
I599
sS'thinking'
p1005
I1280
sS'hated'
p1006
I589
sS'seems'
p1007
I68
sS'except'
p1008
I733
sS'complain'
p1009
I927
sS'wall'
p1010
I161
sS'add'
p1011
I844
sS'other'
p1012
I925
sS'crying'
p1013
I544
sS'wet'
p1014
I321
sS'monday'
p1015
I519
sS'save'
p1016
I209
sS'kick'
p1017
I1112
sS'gave'
p1018
I550
sS'real'
p1019
I635
sS'around'
p1020
I1196
sS'background'
p1021
I1267
sS'breaks'
p1022
I908
sS'ame'
p1023
I1054
sS'dart'
p1024
I1208
sS'yea'
p1025
I1064
sS'tsa'
p1026
I1302
sS'know'
p1027
I179
sS'mom'
p1028
I529
sS'ndrag'
p1029
I1067
sS'world'
p1030
I470
sS'bit'
p1031
I796
sS'feelings'
p1032
I510
sS'd'
I607
sS'knock'
p1033
I982
sS'sorting'
p1034
I710
sS'like'
p1035
I90
sS'lost'
p1036
I1044
sS'hotel'
p1037
I1220
sS'piece'
p1038
I876
sS'loser'
p1039
I699
sS'lightning'
p1040
I1300
sS'nonly'
p1041
I363
sS'lucretia'
p1042
I424
sS'steps'
p1043
I590
sS't'
I26
sS'clutch'
p1044
I359
sS'chick'
p1045
I1247
sS'nher'
p1046
I864
sS'disorder'
p1047
I774
sS'audible'
p1048
I775
sS'trying'
p1049
I558
sS'making'
p1050
I630
sS'twirls'
p1051
I1263
sS'because'
p1052
I624
sS'glare'
p1053
I947
sS'often'
p1054
I539
sS'nlarry'
p1055
I631
sS'people'
p1056
I231
sS'scared'
p1057
I435
sS'nshouldn'
p1058
I843
sS'some'
p1059
I52
sS'back'
p1060
I102
sS'nlike'
p1061
I178
sS'nfrom'
p1062
I456
sS'hair'
p1063
I323
sS'urgent'
p1064
I734
sS'bros'
p1065
I921
sS'sure'
p1066
I437
sS'palm'
p1067
I1116
sS'accelerate'
p1068
I448
sS'sight'
p1069
I294
sS'nbut'
p1070
I308
sS'home'
p1071
I440
sS'extended'
p1072
I1203
sS'classes'
p1073
I946
sS'thinks'
p1074
I797
sS'friend'
p1075
I718
sS'palms'
p1076
I434
sS'for'
p1077
I51
sS'stronger'
p1078
I679
sS'broad'
p1079
I116
sS'avoid'
p1080
I1075
sS'deleted'
p1081
I1293
sS'stops'
p1082
I825
sS'nturning'
p1083
I703
sS'everything'
p1084
I507
sS'pounding'
p1085
I188
sS'does'
p1086
I113
sS'nwearing'
p1087
I1171
sS'nlonger'
p1088
I78
sS'picks'
p1089
I953
sS'nose'
p1090
I910
sS'somehow'
p1091
I689
sS'be'
p1092
I11
sS'knew'
p1093
I634
sS'shadow'
p1094
I1184
sS'resolve'
p1095
I1303
sS'power'
p1096
I638
sS'reaching'
p1097
I48
sS'seconds'
p1098
I334
sS'betrayal'
p1099
I907
sS'night'
p1100
I520
sS'diamonds'
p1101
I1176
sS'nmy'
p1102
I345
sS'pressure'
p1103
I685
sS'step'
p1104
I1169
sS'nme'
p1105
I532
sS'defensive'
p1106
I194
sS'chatting'
p1107
I1135
sS'went'
p1108
I459
sS'refuge'
p1109
I319
sS'crowds'
p1110
I1209
sS'on'
p1111
I62
sS'about'
p1112
I633
sS'ol'
p1113
I745
sS'ok'
p1114
I192
sS'housekeeping'
p1115
I1232
sS'anything'
p1116
I64
sS'oh'
p1117
I82
sS'of'
p1118
I252
sS'violence'
p1119
I1160
sS'nspread'
p1120
I387
sS'drag'
p1121
I683
sS'recognized'
p1122
I945
sS'side'
p1123
I738
sS'stretch'
p1124
I1047
sS'dinner'
p1125
I712
sS'slams'
p1126
I305
sS'ndefinitely'
p1127
I739
sS'stand'
p1128
I293
sS'learning'
p1129
I632
sS'ndoor'
p1130
I697
sS'mixed'
p1131
I983
sS'mean'
p1132
I674
sS'or'
p1133
I870
sS'silence'
p1134
I856
sS'neighborhood'
p1135
I516
sS'else'
p1136
I1286
sS'afterall'
p1137
I905
sS'sheets'
p1138
I1236
sS'nso'
p1139
I549
sS'pussy'
p1140
I238
sS'into'
p1141
I265
sS'articulate'
p1142
I548
sS'son'
p1143
I567
sS'down'
p1144
I314
sS'nreflecting'
p1145
I1198
sS'right'
p1146
I906
sS'promise'
p1147
I728
sS'responds'
p1148
I781
sS'apologize'
p1149
I195
sS'old'
p1150
I971
sS'quickly'
p1151
I786
sS'your'
p1152
I764
sS'particularly'
p1153
I1019
sS'mental'
p1154
I724
sS'stare'
p1155
I1077
sS'breath'
p1156
I177
sS'knuckles'
p1157
I344
sS'deal'
p1158
I928
sS'her'
p1159
I142
sS'few'
p1160
I783
sS'aren'
p1161
I904
sS'there'
p1162
I171
sS'hey'
p1163
I375
sS'long'
p1164
I463
sS'kidding'
p1165
I307
sS'start'
p1166
I174
sS'lonely'
p1167
I669
sS'gaze'
p1168
I401
sS'nmirage'
p1169
I1043
sS'way'
p1170
I467
sS'call'
p1171
I966
sS'was'
p1172
I427
sS'happy'
p1173
I391
sS'ago'
p1174
I716
sS'head'
p1175
I484
sS'himself'
p1176
I299
sS'invite'
p1177
I1035
sS'inches'
p1178
I495
sS'700'
p1179
I769
sS'mutter'
p1180
I902
sS'but'
p1181
I50
sS'idea'
p1182
I493
sS'delivery'
p1183
I534
sS'reminds'
p1184
I1088
sS'repeated'
p1185
I538
sS'larry'
p1186
I542
sS'hear'
p1187
I303
sS'alive'
p1188
I392
sS'claim'
p1189
I990
sS'don'
p1190
I25
sS'squeeze'
p1191
I361
sS'with'
p1192
I200
sS'he'
p1193
I206
sS'abused'
p1194
I673
sS'pull'
p1195
I806
sS'made'
p1196
I678
sS'smelled'
p1197
I944
sS'flecks'
p1198
I1022
sS'flood'
p1199
I1086
sS'wish'
p1200
I1262
sS'inside'
p1201
I152
sS'up'
p1202
I249
sS'us'
p1203
I818
sS'angrier'
p1204
I1156
sS'planet'
p1205
I88
sS'convince'
p1206
I789
sS'uh'
p1207
I1107
sS'nwouldn'
p1208
I676
sS'grasp'
p1209
I1074
sS'nget'
p1210
I1087
sS'cheeks'
p1211
I371
sS'minutes'
p1212
I604
sS'called'
p1213
I943
sS'nbelieve'
p1214
I625
sS'delete'
p1215
I340
sS'nno'
p1216
I489
sS'sort'
p1217
I559
sS'later'
p1218
I835
sS'constant'
p1219
I509
sS'nlook'
p1220
I923
sS'hesitates'
p1221
I959
sS'metal'
p1222
I594
sS'escape'
p1223
I386
sS'covers'
p1224
I266
sS'an'
p1225
I628
sS'standing'
p1226
I1183
sS'imagination'
p1227
I629
sS'as'
p1228
I36
sS'raises'
p1229
I1259
sS'curb'
p1230
I936
sS'daily'
p1231
I533
sS'walks'
p1232
I588
sS'girlfriend'
p1233
I929
sS'awhile'
p1234
I702
sS'dent'
p1235
I1008
sS'mold'
p1236
I666
sS'blues'
p1237
I490
sS'shit'
p1238
I93
sS'deeper'
p1239
I832
sS'shaky'
p1240
I962
sS'ni'
p1241
I108
sS'reeally'
p1242
I1145
sS'maybe'
p1243
I694
sS'no'
p1244
I77
sS'open'
p1245
I978
sS'na'
p1246
I770
sS'when'
p1247
I234
sS'ndeal'
p1248
I672
sS'orient'
p1249
I1306
sS'nas'
p1250
I204
sS'points'
p1251
I901
sS'5'
I1250
sS'sick'
p1252
I236
sS'brings'
p1253
I1085
sS'u'
I1017
sS'you'
p1254
I17
sS'really'
p1255
I95
sS'smell'
p1256
I1012
sS'roll'
p1257
I197
sS'realize'
p1258
I964
sS'karma'
p1259
I693
sS'ntried'
p1260
I868
sS'area'
p1261
I974
sS'repeat'
p1262
I1217
sS'kinds'
p1263
I840
sS'pillows'
p1264
I1235
sS'nmost'
p1265
I389
sS'nwant'
p1266
I1163
sS'felt'
p1267
I461
sS'drift'
p1268
I320
sS'stay'
p1269
I729
sS'alright'
p1270
I18
sS'chance'
p1271
I30
sS'important'
p1272
I390
sS'song'
p1273
I1190
sS'hurt'
p1274
I675
sS'friends'
p1275
I1102
sS'needed'
p1276
I732
sS'nconfidently'
p1277
I1202
sS'nblood'
p1278
I343
sS'im'
p1279
I1147
sS'longer'
p1280
I332
sS'calls'
p1281
I20
sS'excuse'
p1282
I402
sS'also'
p1283
I1243
sS'nforget'
p1284
I860
sS'nthis'
p1285
I613
sS'together'
p1286
I217
sS'hello'
p1287
I753
sS'wassup'
p1288
I1003
sS'week'
p1289
I765
sS'adam'
p1290
I201
sS'guiltyabout'
p1291
I1146
sS'time'
p1292
I215
sS'push'
p1293
I279
sS'awake'
p1294
I981
sS'backward'
p1295
I909
sS'baked'
p1296
I1033
sS'having'
p1297
I255
sS'once'
p1298
I337
s.